
./tests/vm/pt-grow-stack:     file format elf32-i386


Disassembly of section .text:

080480d4 <test_main>:
#include "tests/lib.h"
#include "tests/main.h"

void
test_main (void)
{
 80480d4:	55                   	push   %ebp
 80480d5:	89 e5                	mov    %esp,%ebp
 80480d7:	81 ec 28 11 00 00    	sub    $0x1128,%esp
  char stack_obj[4096];
  struct arc4 arc4;

  arc4_init (&arc4, "foobar", 6);
 80480dd:	c7 44 24 08 06 00 00 	movl   $0x6,0x8(%esp)
 80480e4:	00 
 80480e5:	c7 44 24 04 f8 ae 04 	movl   $0x804aef8,0x4(%esp)
 80480ec:	08 
 80480ed:	8d 85 f6 ee ff ff    	lea    -0x110a(%ebp),%eax
 80480f3:	89 04 24             	mov    %eax,(%esp)
 80480f6:	e8 8e 00 00 00       	call   8048189 <arc4_init>
  memset (stack_obj, 0, sizeof stack_obj);
 80480fb:	c7 44 24 08 00 10 00 	movl   $0x1000,0x8(%esp)
 8048102:	00 
 8048103:	c7 44 24 04 00 00 00 	movl   $0x0,0x4(%esp)
 804810a:	00 
 804810b:	8d 85 f8 ef ff ff    	lea    -0x1008(%ebp),%eax
 8048111:	89 04 24             	mov    %eax,(%esp)
 8048114:	e8 a3 21 00 00       	call   804a2bc <memset>
  arc4_crypt (&arc4, stack_obj, sizeof stack_obj);
 8048119:	c7 44 24 08 00 10 00 	movl   $0x1000,0x8(%esp)
 8048120:	00 
 8048121:	8d 85 f8 ef ff ff    	lea    -0x1008(%ebp),%eax
 8048127:	89 44 24 04          	mov    %eax,0x4(%esp)
 804812b:	8d 85 f6 ee ff ff    	lea    -0x110a(%ebp),%eax
 8048131:	89 04 24             	mov    %eax,(%esp)
 8048134:	e8 1d 01 00 00       	call   8048256 <arc4_crypt>
  msg ("cksum: %lu", cksum (stack_obj, sizeof stack_obj));
 8048139:	c7 44 24 04 00 10 00 	movl   $0x1000,0x4(%esp)
 8048140:	00 
 8048141:	8d 85 f8 ef ff ff    	lea    -0x1008(%ebp),%eax
 8048147:	89 04 24             	mov    %eax,(%esp)
 804814a:	e8 c9 01 00 00       	call   8048318 <cksum>
 804814f:	89 44 24 04          	mov    %eax,0x4(%esp)
 8048153:	c7 04 24 ff ae 04 08 	movl   $0x804aeff,(%esp)
 804815a:	e8 1a 03 00 00       	call   8048479 <msg>
}
 804815f:	c9                   	leave  
 8048160:	c3                   	ret    
 8048161:	90                   	nop
 8048162:	90                   	nop
 8048163:	90                   	nop

08048164 <swap_byte>:
#include "tests/arc4.h"

/* Swap bytes. */
static inline void
swap_byte (uint8_t *a, uint8_t *b)
{
 8048164:	55                   	push   %ebp
 8048165:	89 e5                	mov    %esp,%ebp
 8048167:	83 ec 10             	sub    $0x10,%esp
  uint8_t t = *a;
 804816a:	8b 45 08             	mov    0x8(%ebp),%eax
 804816d:	0f b6 00             	movzbl (%eax),%eax
 8048170:	88 45 ff             	mov    %al,-0x1(%ebp)
  *a = *b;
 8048173:	8b 45 0c             	mov    0xc(%ebp),%eax
 8048176:	0f b6 10             	movzbl (%eax),%edx
 8048179:	8b 45 08             	mov    0x8(%ebp),%eax
 804817c:	88 10                	mov    %dl,(%eax)
  *b = t;
 804817e:	8b 45 0c             	mov    0xc(%ebp),%eax
 8048181:	0f b6 55 ff          	movzbl -0x1(%ebp),%edx
 8048185:	88 10                	mov    %dl,(%eax)
}
 8048187:	c9                   	leave  
 8048188:	c3                   	ret    

08048189 <arc4_init>:

void
arc4_init (struct arc4 *arc4, const void *key_, size_t size)
{
 8048189:	55                   	push   %ebp
 804818a:	89 e5                	mov    %esp,%ebp
 804818c:	83 ec 28             	sub    $0x28,%esp
  const uint8_t *key = key_;
 804818f:	8b 45 0c             	mov    0xc(%ebp),%eax
 8048192:	89 45 ec             	mov    %eax,-0x14(%ebp)
  size_t key_idx;
  uint8_t *s;
  int i, j;

  s = arc4->s;
 8048195:	8b 45 08             	mov    0x8(%ebp),%eax
 8048198:	89 45 f4             	mov    %eax,-0xc(%ebp)
  arc4->i = arc4->j = 0;
 804819b:	8b 45 08             	mov    0x8(%ebp),%eax
 804819e:	c6 80 01 01 00 00 00 	movb   $0x0,0x101(%eax)
 80481a5:	8b 45 08             	mov    0x8(%ebp),%eax
 80481a8:	0f b6 90 01 01 00 00 	movzbl 0x101(%eax),%edx
 80481af:	8b 45 08             	mov    0x8(%ebp),%eax
 80481b2:	88 90 00 01 00 00    	mov    %dl,0x100(%eax)
  for (i = 0; i < 256; i++)
 80481b8:	c7 45 f8 00 00 00 00 	movl   $0x0,-0x8(%ebp)
 80481bf:	eb 0f                	jmp    80481d0 <arc4_init+0x47>
    s[i] = i;
 80481c1:	8b 45 f8             	mov    -0x8(%ebp),%eax
 80481c4:	03 45 f4             	add    -0xc(%ebp),%eax
 80481c7:	8b 55 f8             	mov    -0x8(%ebp),%edx
 80481ca:	88 10                	mov    %dl,(%eax)
  uint8_t *s;
  int i, j;

  s = arc4->s;
  arc4->i = arc4->j = 0;
  for (i = 0; i < 256; i++)
 80481cc:	83 45 f8 01          	addl   $0x1,-0x8(%ebp)
 80481d0:	81 7d f8 ff 00 00 00 	cmpl   $0xff,-0x8(%ebp)
 80481d7:	7e e8                	jle    80481c1 <arc4_init+0x38>
    s[i] = i;
  for (key_idx = 0, i = j = 0; i < 256; i++)
 80481d9:	c7 45 f0 00 00 00 00 	movl   $0x0,-0x10(%ebp)
 80481e0:	c7 45 fc 00 00 00 00 	movl   $0x0,-0x4(%ebp)
 80481e7:	8b 45 fc             	mov    -0x4(%ebp),%eax
 80481ea:	89 45 f8             	mov    %eax,-0x8(%ebp)
 80481ed:	eb 5c                	jmp    804824b <arc4_init+0xc2>
    {
      j = (j + s[i] + key[key_idx]) & 255;
 80481ef:	8b 45 f8             	mov    -0x8(%ebp),%eax
 80481f2:	03 45 f4             	add    -0xc(%ebp),%eax
 80481f5:	0f b6 00             	movzbl (%eax),%eax
 80481f8:	0f b6 c0             	movzbl %al,%eax
 80481fb:	89 c2                	mov    %eax,%edx
 80481fd:	03 55 fc             	add    -0x4(%ebp),%edx
 8048200:	8b 45 f0             	mov    -0x10(%ebp),%eax
 8048203:	8b 4d ec             	mov    -0x14(%ebp),%ecx
 8048206:	8d 04 01             	lea    (%ecx,%eax,1),%eax
 8048209:	0f b6 00             	movzbl (%eax),%eax
 804820c:	0f b6 c0             	movzbl %al,%eax
 804820f:	8d 04 02             	lea    (%edx,%eax,1),%eax
 8048212:	25 ff 00 00 00       	and    $0xff,%eax
 8048217:	89 45 fc             	mov    %eax,-0x4(%ebp)
      swap_byte (s + i, s + j);
 804821a:	8b 45 fc             	mov    -0x4(%ebp),%eax
 804821d:	89 c2                	mov    %eax,%edx
 804821f:	03 55 f4             	add    -0xc(%ebp),%edx
 8048222:	8b 45 f8             	mov    -0x8(%ebp),%eax
 8048225:	03 45 f4             	add    -0xc(%ebp),%eax
 8048228:	89 54 24 04          	mov    %edx,0x4(%esp)
 804822c:	89 04 24             	mov    %eax,(%esp)
 804822f:	e8 30 ff ff ff       	call   8048164 <swap_byte>
      if (++key_idx >= size)
 8048234:	83 45 f0 01          	addl   $0x1,-0x10(%ebp)
 8048238:	8b 45 f0             	mov    -0x10(%ebp),%eax
 804823b:	3b 45 10             	cmp    0x10(%ebp),%eax
 804823e:	72 07                	jb     8048247 <arc4_init+0xbe>
        key_idx = 0;
 8048240:	c7 45 f0 00 00 00 00 	movl   $0x0,-0x10(%ebp)

  s = arc4->s;
  arc4->i = arc4->j = 0;
  for (i = 0; i < 256; i++)
    s[i] = i;
  for (key_idx = 0, i = j = 0; i < 256; i++)
 8048247:	83 45 f8 01          	addl   $0x1,-0x8(%ebp)
 804824b:	81 7d f8 ff 00 00 00 	cmpl   $0xff,-0x8(%ebp)
 8048252:	7e 9b                	jle    80481ef <arc4_init+0x66>
      j = (j + s[i] + key[key_idx]) & 255;
      swap_byte (s + i, s + j);
      if (++key_idx >= size)
        key_idx = 0;
    }
}
 8048254:	c9                   	leave  
 8048255:	c3                   	ret    

08048256 <arc4_crypt>:

void
arc4_crypt (struct arc4 *arc4, void *buf_, size_t size)
{
 8048256:	55                   	push   %ebp
 8048257:	89 e5                	mov    %esp,%ebp
 8048259:	53                   	push   %ebx
 804825a:	83 ec 18             	sub    $0x18,%esp
  uint8_t *buf = buf_;
 804825d:	8b 45 0c             	mov    0xc(%ebp),%eax
 8048260:	89 45 f0             	mov    %eax,-0x10(%ebp)
  uint8_t *s;
  uint8_t i, j;

  s = arc4->s;
 8048263:	8b 45 08             	mov    0x8(%ebp),%eax
 8048266:	89 45 f4             	mov    %eax,-0xc(%ebp)
  i = arc4->i;
 8048269:	8b 45 08             	mov    0x8(%ebp),%eax
 804826c:	0f b6 80 00 01 00 00 	movzbl 0x100(%eax),%eax
 8048273:	88 45 fa             	mov    %al,-0x6(%ebp)
  j = arc4->j;
 8048276:	8b 45 08             	mov    0x8(%ebp),%eax
 8048279:	0f b6 80 01 01 00 00 	movzbl 0x101(%eax),%eax
 8048280:	88 45 fb             	mov    %al,-0x5(%ebp)
  while (size-- > 0)
 8048283:	eb 64                	jmp    80482e9 <arc4_crypt+0x93>
    {
      i += 1;
 8048285:	80 45 fa 01          	addb   $0x1,-0x6(%ebp)
      j += s[i];
 8048289:	0f b6 45 fa          	movzbl -0x6(%ebp),%eax
 804828d:	03 45 f4             	add    -0xc(%ebp),%eax
 8048290:	0f b6 00             	movzbl (%eax),%eax
 8048293:	00 45 fb             	add    %al,-0x5(%ebp)
      swap_byte (s + i, s + j);
 8048296:	0f b6 45 fb          	movzbl -0x5(%ebp),%eax
 804829a:	89 c2                	mov    %eax,%edx
 804829c:	03 55 f4             	add    -0xc(%ebp),%edx
 804829f:	0f b6 45 fa          	movzbl -0x6(%ebp),%eax
 80482a3:	03 45 f4             	add    -0xc(%ebp),%eax
 80482a6:	89 54 24 04          	mov    %edx,0x4(%esp)
 80482aa:	89 04 24             	mov    %eax,(%esp)
 80482ad:	e8 b2 fe ff ff       	call   8048164 <swap_byte>
      *buf++ ^= s[(s[i] + s[j]) & 255];
 80482b2:	8b 45 f0             	mov    -0x10(%ebp),%eax
 80482b5:	0f b6 08             	movzbl (%eax),%ecx
 80482b8:	0f b6 55 fa          	movzbl -0x6(%ebp),%edx
 80482bc:	03 55 f4             	add    -0xc(%ebp),%edx
 80482bf:	0f b6 12             	movzbl (%edx),%edx
 80482c2:	0f b6 da             	movzbl %dl,%ebx
 80482c5:	0f b6 55 fb          	movzbl -0x5(%ebp),%edx
 80482c9:	03 55 f4             	add    -0xc(%ebp),%edx
 80482cc:	0f b6 12             	movzbl (%edx),%edx
 80482cf:	0f b6 d2             	movzbl %dl,%edx
 80482d2:	8d 14 13             	lea    (%ebx,%edx,1),%edx
 80482d5:	81 e2 ff 00 00 00    	and    $0xff,%edx
 80482db:	03 55 f4             	add    -0xc(%ebp),%edx
 80482de:	0f b6 12             	movzbl (%edx),%edx
 80482e1:	31 ca                	xor    %ecx,%edx
 80482e3:	88 10                	mov    %dl,(%eax)
 80482e5:	83 45 f0 01          	addl   $0x1,-0x10(%ebp)
  uint8_t i, j;

  s = arc4->s;
  i = arc4->i;
  j = arc4->j;
  while (size-- > 0)
 80482e9:	83 7d 10 00          	cmpl   $0x0,0x10(%ebp)
 80482ed:	0f 95 c0             	setne  %al
 80482f0:	83 6d 10 01          	subl   $0x1,0x10(%ebp)
 80482f4:	84 c0                	test   %al,%al
 80482f6:	75 8d                	jne    8048285 <arc4_crypt+0x2f>
      i += 1;
      j += s[i];
      swap_byte (s + i, s + j);
      *buf++ ^= s[(s[i] + s[j]) & 255];
    }
  arc4->i = i;
 80482f8:	8b 45 08             	mov    0x8(%ebp),%eax
 80482fb:	0f b6 55 fa          	movzbl -0x6(%ebp),%edx
 80482ff:	88 90 00 01 00 00    	mov    %dl,0x100(%eax)
  arc4->j = j;
 8048305:	8b 45 08             	mov    0x8(%ebp),%eax
 8048308:	0f b6 55 fb          	movzbl -0x5(%ebp),%edx
 804830c:	88 90 01 01 00 00    	mov    %dl,0x101(%eax)
}
 8048312:	83 c4 18             	add    $0x18,%esp
 8048315:	5b                   	pop    %ebx
 8048316:	5d                   	pop    %ebp
 8048317:	c3                   	ret    

08048318 <cksum>:
};

/* This is the algorithm used by the Posix `cksum' utility. */
unsigned long
cksum (const void *b_, size_t n)
{
 8048318:	55                   	push   %ebp
 8048319:	89 e5                	mov    %esp,%ebp
 804831b:	83 ec 10             	sub    $0x10,%esp
  const unsigned char *b = b_;
 804831e:	8b 45 08             	mov    0x8(%ebp),%eax
 8048321:	89 45 f0             	mov    %eax,-0x10(%ebp)
  uint32_t s = 0;
 8048324:	c7 45 f4 00 00 00 00 	movl   $0x0,-0xc(%ebp)
  size_t i;
  for (i = n; i > 0; --i)
 804832b:	8b 45 0c             	mov    0xc(%ebp),%eax
 804832e:	89 45 f8             	mov    %eax,-0x8(%ebp)
 8048331:	eb 33                	jmp    8048366 <cksum+0x4e>
    {
      unsigned char c = *b++;
 8048333:	8b 45 f0             	mov    -0x10(%ebp),%eax
 8048336:	0f b6 00             	movzbl (%eax),%eax
 8048339:	88 45 fe             	mov    %al,-0x2(%ebp)
 804833c:	83 45 f0 01          	addl   $0x1,-0x10(%ebp)
      s = (s << 8) ^ crctab[(s >> 24) ^ c];
 8048340:	8b 45 f4             	mov    -0xc(%ebp),%eax
 8048343:	89 c2                	mov    %eax,%edx
 8048345:	c1 e2 08             	shl    $0x8,%edx
 8048348:	8b 45 f4             	mov    -0xc(%ebp),%eax
 804834b:	89 c1                	mov    %eax,%ecx
 804834d:	c1 e9 18             	shr    $0x18,%ecx
 8048350:	0f b6 45 fe          	movzbl -0x2(%ebp),%eax
 8048354:	31 c8                	xor    %ecx,%eax
 8048356:	8b 04 85 40 c6 04 08 	mov    0x804c640(,%eax,4),%eax
 804835d:	31 d0                	xor    %edx,%eax
 804835f:	89 45 f4             	mov    %eax,-0xc(%ebp)
cksum (const void *b_, size_t n)
{
  const unsigned char *b = b_;
  uint32_t s = 0;
  size_t i;
  for (i = n; i > 0; --i)
 8048362:	83 6d f8 01          	subl   $0x1,-0x8(%ebp)
 8048366:	83 7d f8 00          	cmpl   $0x0,-0x8(%ebp)
 804836a:	75 c7                	jne    8048333 <cksum+0x1b>
    {
      unsigned char c = *b++;
      s = (s << 8) ^ crctab[(s >> 24) ^ c];
    }
  while (n != 0)
 804836c:	eb 2c                	jmp    804839a <cksum+0x82>
    {
      unsigned char c = n;
 804836e:	8b 45 0c             	mov    0xc(%ebp),%eax
 8048371:	88 45 ff             	mov    %al,-0x1(%ebp)
      n >>= 8;
 8048374:	c1 6d 0c 08          	shrl   $0x8,0xc(%ebp)
      s = (s << 8) ^ crctab[(s >> 24) ^ c];
 8048378:	8b 45 f4             	mov    -0xc(%ebp),%eax
 804837b:	89 c2                	mov    %eax,%edx
 804837d:	c1 e2 08             	shl    $0x8,%edx
 8048380:	8b 45 f4             	mov    -0xc(%ebp),%eax
 8048383:	89 c1                	mov    %eax,%ecx
 8048385:	c1 e9 18             	shr    $0x18,%ecx
 8048388:	0f b6 45 ff          	movzbl -0x1(%ebp),%eax
 804838c:	31 c8                	xor    %ecx,%eax
 804838e:	8b 04 85 40 c6 04 08 	mov    0x804c640(,%eax,4),%eax
 8048395:	31 d0                	xor    %edx,%eax
 8048397:	89 45 f4             	mov    %eax,-0xc(%ebp)
  for (i = n; i > 0; --i)
    {
      unsigned char c = *b++;
      s = (s << 8) ^ crctab[(s >> 24) ^ c];
    }
  while (n != 0)
 804839a:	83 7d 0c 00          	cmpl   $0x0,0xc(%ebp)
 804839e:	75 ce                	jne    804836e <cksum+0x56>
    {
      unsigned char c = n;
      n >>= 8;
      s = (s << 8) ^ crctab[(s >> 24) ^ c];
    }
  return ~s;
 80483a0:	8b 45 f4             	mov    -0xc(%ebp),%eax
 80483a3:	f7 d0                	not    %eax
}
 80483a5:	c9                   	leave  
 80483a6:	c3                   	ret    
 80483a7:	90                   	nop

080483a8 <vmsg>:
const char *test_name;
bool quiet = false;

static void
vmsg (const char *format, va_list args, const char *suffix) 
{
 80483a8:	55                   	push   %ebp
 80483a9:	89 e5                	mov    %esp,%ebp
 80483ab:	53                   	push   %ebx
 80483ac:	83 ec 14             	sub    $0x14,%esp
     that'll (typically) ensure that it gets sent to the console
     atomically.  Otherwise kernel messages like "foo: exit(0)"
     can end up being interleaved if we're unlucky. */
  static char buf[1024];

  snprintf (buf, sizeof buf, "(%s) ", test_name);
 80483af:	a1 68 cf 04 08       	mov    0x804cf68,%eax
 80483b4:	89 44 24 0c          	mov    %eax,0xc(%esp)
 80483b8:	c7 44 24 08 0c af 04 	movl   $0x804af0c,0x8(%esp)
 80483bf:	08 
 80483c0:	c7 44 24 04 00 04 00 	movl   $0x400,0x4(%esp)
 80483c7:	00 
 80483c8:	c7 04 24 60 ca 04 08 	movl   $0x804ca60,(%esp)
 80483cf:	e8 8e 09 00 00       	call   8048d62 <snprintf>
  vsnprintf (buf + strlen (buf), sizeof buf - strlen (buf), format, args);
 80483d4:	c7 04 24 60 ca 04 08 	movl   $0x804ca60,(%esp)
 80483db:	e8 48 1f 00 00       	call   804a328 <strlen>
 80483e0:	ba 00 04 00 00       	mov    $0x400,%edx
 80483e5:	89 d3                	mov    %edx,%ebx
 80483e7:	29 c3                	sub    %eax,%ebx
 80483e9:	c7 04 24 60 ca 04 08 	movl   $0x804ca60,(%esp)
 80483f0:	e8 33 1f 00 00       	call   804a328 <strlen>
 80483f5:	8d 90 60 ca 04 08    	lea    0x804ca60(%eax),%edx
 80483fb:	8b 45 0c             	mov    0xc(%ebp),%eax
 80483fe:	89 44 24 0c          	mov    %eax,0xc(%esp)
 8048402:	8b 45 08             	mov    0x8(%ebp),%eax
 8048405:	89 44 24 08          	mov    %eax,0x8(%esp)
 8048409:	89 5c 24 04          	mov    %ebx,0x4(%esp)
 804840d:	89 14 24             	mov    %edx,(%esp)
 8048410:	e8 ad 08 00 00       	call   8048cc2 <vsnprintf>
  strlcpy (buf + strlen (buf), suffix, sizeof buf - strlen (buf));
 8048415:	c7 04 24 60 ca 04 08 	movl   $0x804ca60,(%esp)
 804841c:	e8 07 1f 00 00       	call   804a328 <strlen>
 8048421:	ba 00 04 00 00       	mov    $0x400,%edx
 8048426:	89 d3                	mov    %edx,%ebx
 8048428:	29 c3                	sub    %eax,%ebx
 804842a:	c7 04 24 60 ca 04 08 	movl   $0x804ca60,(%esp)
 8048431:	e8 f2 1e 00 00       	call   804a328 <strlen>
 8048436:	8d 90 60 ca 04 08    	lea    0x804ca60(%eax),%edx
 804843c:	89 5c 24 08          	mov    %ebx,0x8(%esp)
 8048440:	8b 45 10             	mov    0x10(%ebp),%eax
 8048443:	89 44 24 04          	mov    %eax,0x4(%esp)
 8048447:	89 14 24             	mov    %edx,(%esp)
 804844a:	e8 65 1f 00 00       	call   804a3b4 <strlcpy>
  write (STDOUT_FILENO, buf, strlen (buf));
 804844f:	c7 04 24 60 ca 04 08 	movl   $0x804ca60,(%esp)
 8048456:	e8 cd 1e 00 00       	call   804a328 <strlen>
 804845b:	89 44 24 08          	mov    %eax,0x8(%esp)
 804845f:	c7 44 24 04 60 ca 04 	movl   $0x804ca60,0x4(%esp)
 8048466:	08 
 8048467:	c7 04 24 01 00 00 00 	movl   $0x1,(%esp)
 804846e:	e8 4b 27 00 00       	call   804abbe <write>
}
 8048473:	83 c4 14             	add    $0x14,%esp
 8048476:	5b                   	pop    %ebx
 8048477:	5d                   	pop    %ebp
 8048478:	c3                   	ret    

08048479 <msg>:

void
msg (const char *format, ...) 
{
 8048479:	55                   	push   %ebp
 804847a:	89 e5                	mov    %esp,%ebp
 804847c:	83 ec 28             	sub    $0x28,%esp
  va_list args;

  if (quiet)
 804847f:	0f b6 05 40 ca 04 08 	movzbl 0x804ca40,%eax
 8048486:	84 c0                	test   %al,%al
 8048488:	75 22                	jne    80484ac <msg+0x33>
    return;
  va_start (args, format);
 804848a:	8d 45 0c             	lea    0xc(%ebp),%eax
 804848d:	89 45 f4             	mov    %eax,-0xc(%ebp)
  vmsg (format, args, "\n");
 8048490:	8b 45 f4             	mov    -0xc(%ebp),%eax
 8048493:	c7 44 24 08 12 af 04 	movl   $0x804af12,0x8(%esp)
 804849a:	08 
 804849b:	89 44 24 04          	mov    %eax,0x4(%esp)
 804849f:	8b 45 08             	mov    0x8(%ebp),%eax
 80484a2:	89 04 24             	mov    %eax,(%esp)
 80484a5:	e8 fe fe ff ff       	call   80483a8 <vmsg>
 80484aa:	eb 01                	jmp    80484ad <msg+0x34>
msg (const char *format, ...) 
{
  va_list args;

  if (quiet)
    return;
 80484ac:	90                   	nop
  va_start (args, format);
  vmsg (format, args, "\n");
  va_end (args);
}
 80484ad:	c9                   	leave  
 80484ae:	c3                   	ret    

080484af <fail>:

void
fail (const char *format, ...) 
{
 80484af:	55                   	push   %ebp
 80484b0:	89 e5                	mov    %esp,%ebp
 80484b2:	83 ec 28             	sub    $0x28,%esp
  va_list args;

  va_start (args, format);
 80484b5:	8d 45 0c             	lea    0xc(%ebp),%eax
 80484b8:	89 45 f4             	mov    %eax,-0xc(%ebp)
  vmsg (format, args, ": FAILED\n");
 80484bb:	8b 45 f4             	mov    -0xc(%ebp),%eax
 80484be:	c7 44 24 08 14 af 04 	movl   $0x804af14,0x8(%esp)
 80484c5:	08 
 80484c6:	89 44 24 04          	mov    %eax,0x4(%esp)
 80484ca:	8b 45 08             	mov    0x8(%ebp),%eax
 80484cd:	89 04 24             	mov    %eax,(%esp)
 80484d0:	e8 d3 fe ff ff       	call   80483a8 <vmsg>
  va_end (args);

  exit (1);
 80484d5:	c7 04 24 01 00 00 00 	movl   $0x1,(%esp)
 80484dc:	e8 eb 25 00 00       	call   804aacc <exit>

080484e1 <swap>:
}

static void
swap (void *a_, void *b_, size_t size) 
{
 80484e1:	55                   	push   %ebp
 80484e2:	89 e5                	mov    %esp,%ebp
 80484e4:	83 ec 10             	sub    $0x10,%esp
  uint8_t *a = a_;
 80484e7:	8b 45 08             	mov    0x8(%ebp),%eax
 80484ea:	89 45 f0             	mov    %eax,-0x10(%ebp)
  uint8_t *b = b_;
 80484ed:	8b 45 0c             	mov    0xc(%ebp),%eax
 80484f0:	89 45 f4             	mov    %eax,-0xc(%ebp)
  size_t i;

  for (i = 0; i < size; i++) 
 80484f3:	c7 45 f8 00 00 00 00 	movl   $0x0,-0x8(%ebp)
 80484fa:	eb 37                	jmp    8048533 <swap+0x52>
    {
      uint8_t t = a[i];
 80484fc:	8b 45 f8             	mov    -0x8(%ebp),%eax
 80484ff:	8b 55 f0             	mov    -0x10(%ebp),%edx
 8048502:	8d 04 02             	lea    (%edx,%eax,1),%eax
 8048505:	0f b6 00             	movzbl (%eax),%eax
 8048508:	88 45 ff             	mov    %al,-0x1(%ebp)
      a[i] = b[i];
 804850b:	8b 45 f8             	mov    -0x8(%ebp),%eax
 804850e:	8b 55 f0             	mov    -0x10(%ebp),%edx
 8048511:	01 c2                	add    %eax,%edx
 8048513:	8b 45 f8             	mov    -0x8(%ebp),%eax
 8048516:	8b 4d f4             	mov    -0xc(%ebp),%ecx
 8048519:	8d 04 01             	lea    (%ecx,%eax,1),%eax
 804851c:	0f b6 00             	movzbl (%eax),%eax
 804851f:	88 02                	mov    %al,(%edx)
      b[i] = t;
 8048521:	8b 45 f8             	mov    -0x8(%ebp),%eax
 8048524:	8b 55 f4             	mov    -0xc(%ebp),%edx
 8048527:	01 c2                	add    %eax,%edx
 8048529:	0f b6 45 ff          	movzbl -0x1(%ebp),%eax
 804852d:	88 02                	mov    %al,(%edx)
{
  uint8_t *a = a_;
  uint8_t *b = b_;
  size_t i;

  for (i = 0; i < size; i++) 
 804852f:	83 45 f8 01          	addl   $0x1,-0x8(%ebp)
 8048533:	8b 45 f8             	mov    -0x8(%ebp),%eax
 8048536:	3b 45 10             	cmp    0x10(%ebp),%eax
 8048539:	72 c1                	jb     80484fc <swap+0x1b>
    {
      uint8_t t = a[i];
      a[i] = b[i];
      b[i] = t;
    }
}
 804853b:	c9                   	leave  
 804853c:	c3                   	ret    

0804853d <shuffle>:

void
shuffle (void *buf_, size_t cnt, size_t size) 
{
 804853d:	55                   	push   %ebp
 804853e:	89 e5                	mov    %esp,%ebp
 8048540:	83 ec 28             	sub    $0x28,%esp
  char *buf = buf_;
 8048543:	8b 45 08             	mov    0x8(%ebp),%eax
 8048546:	89 45 ec             	mov    %eax,-0x14(%ebp)
  size_t i;

  for (i = 0; i < cnt; i++)
 8048549:	c7 45 f0 00 00 00 00 	movl   $0x0,-0x10(%ebp)
 8048550:	eb 49                	jmp    804859b <shuffle+0x5e>
    {
      size_t j = i + random_ulong () % (cnt - i);
 8048552:	e8 12 07 00 00       	call   8048c69 <random_ulong>
 8048557:	8b 55 f0             	mov    -0x10(%ebp),%edx
 804855a:	8b 4d 0c             	mov    0xc(%ebp),%ecx
 804855d:	29 d1                	sub    %edx,%ecx
 804855f:	ba 00 00 00 00       	mov    $0x0,%edx
 8048564:	f7 f1                	div    %ecx
 8048566:	89 d0                	mov    %edx,%eax
 8048568:	03 45 f0             	add    -0x10(%ebp),%eax
 804856b:	89 45 f4             	mov    %eax,-0xc(%ebp)
      swap (buf + i * size, buf + j * size, size);
 804856e:	8b 45 f4             	mov    -0xc(%ebp),%eax
 8048571:	0f af 45 10          	imul   0x10(%ebp),%eax
 8048575:	89 c2                	mov    %eax,%edx
 8048577:	03 55 ec             	add    -0x14(%ebp),%edx
 804857a:	8b 45 f0             	mov    -0x10(%ebp),%eax
 804857d:	0f af 45 10          	imul   0x10(%ebp),%eax
 8048581:	03 45 ec             	add    -0x14(%ebp),%eax
 8048584:	8b 4d 10             	mov    0x10(%ebp),%ecx
 8048587:	89 4c 24 08          	mov    %ecx,0x8(%esp)
 804858b:	89 54 24 04          	mov    %edx,0x4(%esp)
 804858f:	89 04 24             	mov    %eax,(%esp)
 8048592:	e8 4a ff ff ff       	call   80484e1 <swap>
shuffle (void *buf_, size_t cnt, size_t size) 
{
  char *buf = buf_;
  size_t i;

  for (i = 0; i < cnt; i++)
 8048597:	83 45 f0 01          	addl   $0x1,-0x10(%ebp)
 804859b:	8b 45 f0             	mov    -0x10(%ebp),%eax
 804859e:	3b 45 0c             	cmp    0xc(%ebp),%eax
 80485a1:	72 af                	jb     8048552 <shuffle+0x15>
    {
      size_t j = i + random_ulong () % (cnt - i);
      swap (buf + i * size, buf + j * size, size);
    }
}
 80485a3:	c9                   	leave  
 80485a4:	c3                   	ret    

080485a5 <exec_children>:

void
exec_children (const char *child_name, pid_t pids[], size_t child_cnt) 
{
 80485a5:	55                   	push   %ebp
 80485a6:	89 e5                	mov    %esp,%ebp
 80485a8:	53                   	push   %ebx
 80485a9:	81 ec b4 00 00 00    	sub    $0xb4,%esp
  size_t i;

  for (i = 0; i < child_cnt; i++) 
 80485af:	c7 45 f4 00 00 00 00 	movl   $0x0,-0xc(%ebp)
 80485b6:	e9 a0 00 00 00       	jmp    804865b <exec_children+0xb6>
    {
      char cmd_line[128];
      snprintf (cmd_line, sizeof cmd_line, "%s %zu", child_name, i);
 80485bb:	8b 45 f4             	mov    -0xc(%ebp),%eax
 80485be:	89 44 24 10          	mov    %eax,0x10(%esp)
 80485c2:	8b 45 08             	mov    0x8(%ebp),%eax
 80485c5:	89 44 24 0c          	mov    %eax,0xc(%esp)
 80485c9:	c7 44 24 08 1e af 04 	movl   $0x804af1e,0x8(%esp)
 80485d0:	08 
 80485d1:	c7 44 24 04 80 00 00 	movl   $0x80,0x4(%esp)
 80485d8:	00 
 80485d9:	8d 85 74 ff ff ff    	lea    -0x8c(%ebp),%eax
 80485df:	89 04 24             	mov    %eax,(%esp)
 80485e2:	e8 7b 07 00 00       	call   8048d62 <snprintf>
      CHECK ((pids[i] = exec (cmd_line)) != PID_ERROR,
 80485e7:	8b 45 f4             	mov    -0xc(%ebp),%eax
 80485ea:	8d 50 01             	lea    0x1(%eax),%edx
 80485ed:	8d 85 74 ff ff ff    	lea    -0x8c(%ebp),%eax
 80485f3:	89 44 24 0c          	mov    %eax,0xc(%esp)
 80485f7:	8b 45 10             	mov    0x10(%ebp),%eax
 80485fa:	89 44 24 08          	mov    %eax,0x8(%esp)
 80485fe:	89 54 24 04          	mov    %edx,0x4(%esp)
 8048602:	c7 04 24 25 af 04 08 	movl   $0x804af25,(%esp)
 8048609:	e8 6b fe ff ff       	call   8048479 <msg>
 804860e:	8b 45 f4             	mov    -0xc(%ebp),%eax
 8048611:	c1 e0 02             	shl    $0x2,%eax
 8048614:	89 c3                	mov    %eax,%ebx
 8048616:	03 5d 0c             	add    0xc(%ebp),%ebx
 8048619:	8d 85 74 ff ff ff    	lea    -0x8c(%ebp),%eax
 804861f:	89 04 24             	mov    %eax,(%esp)
 8048622:	e8 dc 24 00 00       	call   804ab03 <exec>
 8048627:	89 03                	mov    %eax,(%ebx)
 8048629:	8b 03                	mov    (%ebx),%eax
 804862b:	83 f8 ff             	cmp    $0xffffffff,%eax
 804862e:	75 27                	jne    8048657 <exec_children+0xb2>
 8048630:	8b 45 f4             	mov    -0xc(%ebp),%eax
 8048633:	8d 50 01             	lea    0x1(%eax),%edx
 8048636:	8d 85 74 ff ff ff    	lea    -0x8c(%ebp),%eax
 804863c:	89 44 24 0c          	mov    %eax,0xc(%esp)
 8048640:	8b 45 10             	mov    0x10(%ebp),%eax
 8048643:	89 44 24 08          	mov    %eax,0x8(%esp)
 8048647:	89 54 24 04          	mov    %edx,0x4(%esp)
 804864b:	c7 04 24 25 af 04 08 	movl   $0x804af25,(%esp)
 8048652:	e8 58 fe ff ff       	call   80484af <fail>
void
exec_children (const char *child_name, pid_t pids[], size_t child_cnt) 
{
  size_t i;

  for (i = 0; i < child_cnt; i++) 
 8048657:	83 45 f4 01          	addl   $0x1,-0xc(%ebp)
 804865b:	8b 45 f4             	mov    -0xc(%ebp),%eax
 804865e:	3b 45 10             	cmp    0x10(%ebp),%eax
 8048661:	0f 82 54 ff ff ff    	jb     80485bb <exec_children+0x16>
      char cmd_line[128];
      snprintf (cmd_line, sizeof cmd_line, "%s %zu", child_name, i);
      CHECK ((pids[i] = exec (cmd_line)) != PID_ERROR,
             "exec child %zu of %zu: \"%s\"", i + 1, child_cnt, cmd_line);
    }
}
 8048667:	81 c4 b4 00 00 00    	add    $0xb4,%esp
 804866d:	5b                   	pop    %ebx
 804866e:	5d                   	pop    %ebp
 804866f:	c3                   	ret    

08048670 <wait_children>:

void
wait_children (pid_t pids[], size_t child_cnt) 
{
 8048670:	55                   	push   %ebp
 8048671:	89 e5                	mov    %esp,%ebp
 8048673:	83 ec 38             	sub    $0x38,%esp
  size_t i;
  
  for (i = 0; i < child_cnt; i++) 
 8048676:	c7 45 f0 00 00 00 00 	movl   $0x0,-0x10(%ebp)
 804867d:	eb 78                	jmp    80486f7 <wait_children+0x87>
    {
      int status = wait (pids[i]);
 804867f:	8b 45 f0             	mov    -0x10(%ebp),%eax
 8048682:	c1 e0 02             	shl    $0x2,%eax
 8048685:	03 45 08             	add    0x8(%ebp),%eax
 8048688:	8b 00                	mov    (%eax),%eax
 804868a:	89 04 24             	mov    %eax,(%esp)
 804868d:	e8 89 24 00 00       	call   804ab1b <wait>
 8048692:	89 45 f4             	mov    %eax,-0xc(%ebp)
      CHECK (status == (int) i,
 8048695:	8b 45 f0             	mov    -0x10(%ebp),%eax
 8048698:	8d 50 01             	lea    0x1(%eax),%edx
 804869b:	8b 45 f0             	mov    -0x10(%ebp),%eax
 804869e:	89 44 24 10          	mov    %eax,0x10(%esp)
 80486a2:	8b 45 f4             	mov    -0xc(%ebp),%eax
 80486a5:	89 44 24 0c          	mov    %eax,0xc(%esp)
 80486a9:	8b 45 0c             	mov    0xc(%ebp),%eax
 80486ac:	89 44 24 08          	mov    %eax,0x8(%esp)
 80486b0:	89 54 24 04          	mov    %edx,0x4(%esp)
 80486b4:	c7 04 24 44 af 04 08 	movl   $0x804af44,(%esp)
 80486bb:	e8 b9 fd ff ff       	call   8048479 <msg>
 80486c0:	8b 45 f0             	mov    -0x10(%ebp),%eax
 80486c3:	3b 45 f4             	cmp    -0xc(%ebp),%eax
 80486c6:	74 2b                	je     80486f3 <wait_children+0x83>
 80486c8:	8b 45 f0             	mov    -0x10(%ebp),%eax
 80486cb:	8d 50 01             	lea    0x1(%eax),%edx
 80486ce:	8b 45 f0             	mov    -0x10(%ebp),%eax
 80486d1:	89 44 24 10          	mov    %eax,0x10(%esp)
 80486d5:	8b 45 f4             	mov    -0xc(%ebp),%eax
 80486d8:	89 44 24 0c          	mov    %eax,0xc(%esp)
 80486dc:	8b 45 0c             	mov    0xc(%ebp),%eax
 80486df:	89 44 24 08          	mov    %eax,0x8(%esp)
 80486e3:	89 54 24 04          	mov    %edx,0x4(%esp)
 80486e7:	c7 04 24 44 af 04 08 	movl   $0x804af44,(%esp)
 80486ee:	e8 bc fd ff ff       	call   80484af <fail>
void
wait_children (pid_t pids[], size_t child_cnt) 
{
  size_t i;
  
  for (i = 0; i < child_cnt; i++) 
 80486f3:	83 45 f0 01          	addl   $0x1,-0x10(%ebp)
 80486f7:	8b 45 f0             	mov    -0x10(%ebp),%eax
 80486fa:	3b 45 0c             	cmp    0xc(%ebp),%eax
 80486fd:	72 80                	jb     804867f <wait_children+0xf>
      int status = wait (pids[i]);
      CHECK (status == (int) i,
             "wait for child %zu of %zu returned %d (expected %zu)",
             i + 1, child_cnt, status, i);
    }
}
 80486ff:	c9                   	leave  
 8048700:	c3                   	ret    

08048701 <check_file_handle>:

void
check_file_handle (int fd,
                   const char *file_name, const void *buf_, size_t size) 
{
 8048701:	55                   	push   %ebp
 8048702:	89 e5                	mov    %esp,%ebp
 8048704:	81 ec 48 02 00 00    	sub    $0x248,%esp
  const char *buf = buf_;
 804870a:	8b 45 10             	mov    0x10(%ebp),%eax
 804870d:	89 45 e4             	mov    %eax,-0x1c(%ebp)
  size_t ofs = 0;
 8048710:	c7 45 e8 00 00 00 00 	movl   $0x0,-0x18(%ebp)
  size_t file_size;

  /* Warn about file of wrong size.  Don't fail yet because we
     may still be able to get more information by reading the
     file. */
  file_size = filesize (fd);
 8048717:	8b 45 08             	mov    0x8(%ebp),%eax
 804871a:	89 04 24             	mov    %eax,(%esp)
 804871d:	e8 66 24 00 00       	call   804ab88 <filesize>
 8048722:	89 45 ec             	mov    %eax,-0x14(%ebp)
  if (file_size != size)
 8048725:	8b 45 ec             	mov    -0x14(%ebp),%eax
 8048728:	3b 45 14             	cmp    0x14(%ebp),%eax
 804872b:	0f 84 c9 00 00 00    	je     80487fa <check_file_handle+0xf9>
    msg ("size of %s (%zu) differs from expected (%zu)",
 8048731:	8b 45 14             	mov    0x14(%ebp),%eax
 8048734:	89 44 24 0c          	mov    %eax,0xc(%esp)
 8048738:	8b 45 ec             	mov    -0x14(%ebp),%eax
 804873b:	89 44 24 08          	mov    %eax,0x8(%esp)
 804873f:	8b 45 0c             	mov    0xc(%ebp),%eax
 8048742:	89 44 24 04          	mov    %eax,0x4(%esp)
 8048746:	c7 04 24 7c af 04 08 	movl   $0x804af7c,(%esp)
 804874d:	e8 27 fd ff ff       	call   8048479 <msg>
          file_name, file_size, size);

  /* Read the file block-by-block, comparing data as we go. */
  while (ofs < size)
 8048752:	e9 a3 00 00 00       	jmp    80487fa <check_file_handle+0xf9>
    {
      char block[512];
      size_t block_size, ret_val;

      block_size = size - ofs;
 8048757:	8b 45 e8             	mov    -0x18(%ebp),%eax
 804875a:	8b 55 14             	mov    0x14(%ebp),%edx
 804875d:	89 d1                	mov    %edx,%ecx
 804875f:	29 c1                	sub    %eax,%ecx
 8048761:	89 c8                	mov    %ecx,%eax
 8048763:	89 45 f0             	mov    %eax,-0x10(%ebp)
      if (block_size > sizeof block)
 8048766:	81 7d f0 00 02 00 00 	cmpl   $0x200,-0x10(%ebp)
 804876d:	76 07                	jbe    8048776 <check_file_handle+0x75>
        block_size = sizeof block;
 804876f:	c7 45 f0 00 02 00 00 	movl   $0x200,-0x10(%ebp)

      ret_val = read (fd, block, block_size);
 8048776:	8b 45 f0             	mov    -0x10(%ebp),%eax
 8048779:	89 44 24 08          	mov    %eax,0x8(%esp)
 804877d:	8d 85 e4 fd ff ff    	lea    -0x21c(%ebp),%eax
 8048783:	89 44 24 04          	mov    %eax,0x4(%esp)
 8048787:	8b 45 08             	mov    0x8(%ebp),%eax
 804878a:	89 04 24             	mov    %eax,(%esp)
 804878d:	e8 0e 24 00 00       	call   804aba0 <read>
 8048792:	89 45 f4             	mov    %eax,-0xc(%ebp)
      if (ret_val != block_size)
 8048795:	8b 45 f4             	mov    -0xc(%ebp),%eax
 8048798:	3b 45 f0             	cmp    -0x10(%ebp),%eax
 804879b:	74 28                	je     80487c5 <check_file_handle+0xc4>
        fail ("read of %zu bytes at offset %zu in \"%s\" returned %zu",
 804879d:	8b 45 f4             	mov    -0xc(%ebp),%eax
 80487a0:	89 44 24 10          	mov    %eax,0x10(%esp)
 80487a4:	8b 45 0c             	mov    0xc(%ebp),%eax
 80487a7:	89 44 24 0c          	mov    %eax,0xc(%esp)
 80487ab:	8b 45 e8             	mov    -0x18(%ebp),%eax
 80487ae:	89 44 24 08          	mov    %eax,0x8(%esp)
 80487b2:	8b 45 f0             	mov    -0x10(%ebp),%eax
 80487b5:	89 44 24 04          	mov    %eax,0x4(%esp)
 80487b9:	c7 04 24 ac af 04 08 	movl   $0x804afac,(%esp)
 80487c0:	e8 ea fc ff ff       	call   80484af <fail>
              block_size, ofs, file_name, ret_val);

      compare_bytes (block, buf + ofs, block_size, ofs, file_name);
 80487c5:	8b 45 e8             	mov    -0x18(%ebp),%eax
 80487c8:	8b 55 e4             	mov    -0x1c(%ebp),%edx
 80487cb:	01 c2                	add    %eax,%edx
 80487cd:	8b 45 0c             	mov    0xc(%ebp),%eax
 80487d0:	89 44 24 10          	mov    %eax,0x10(%esp)
 80487d4:	8b 45 e8             	mov    -0x18(%ebp),%eax
 80487d7:	89 44 24 0c          	mov    %eax,0xc(%esp)
 80487db:	8b 45 f0             	mov    -0x10(%ebp),%eax
 80487de:	89 44 24 08          	mov    %eax,0x8(%esp)
 80487e2:	89 54 24 04          	mov    %edx,0x4(%esp)
 80487e6:	8d 85 e4 fd ff ff    	lea    -0x21c(%ebp),%eax
 80487ec:	89 04 24             	mov    %eax,(%esp)
 80487ef:	e8 d0 00 00 00       	call   80488c4 <compare_bytes>
      ofs += block_size;
 80487f4:	8b 45 f0             	mov    -0x10(%ebp),%eax
 80487f7:	01 45 e8             	add    %eax,-0x18(%ebp)
  if (file_size != size)
    msg ("size of %s (%zu) differs from expected (%zu)",
          file_name, file_size, size);

  /* Read the file block-by-block, comparing data as we go. */
  while (ofs < size)
 80487fa:	8b 45 e8             	mov    -0x18(%ebp),%eax
 80487fd:	3b 45 14             	cmp    0x14(%ebp),%eax
 8048800:	0f 82 51 ff ff ff    	jb     8048757 <check_file_handle+0x56>
      compare_bytes (block, buf + ofs, block_size, ofs, file_name);
      ofs += block_size;
    }

  /* Now fail due to wrong file size. */
  if (file_size != size)
 8048806:	8b 45 ec             	mov    -0x14(%ebp),%eax
 8048809:	3b 45 14             	cmp    0x14(%ebp),%eax
 804880c:	74 21                	je     804882f <check_file_handle+0x12e>
    fail ("size of %s (%zu) differs from expected (%zu)",
 804880e:	8b 45 14             	mov    0x14(%ebp),%eax
 8048811:	89 44 24 0c          	mov    %eax,0xc(%esp)
 8048815:	8b 45 ec             	mov    -0x14(%ebp),%eax
 8048818:	89 44 24 08          	mov    %eax,0x8(%esp)
 804881c:	8b 45 0c             	mov    0xc(%ebp),%eax
 804881f:	89 44 24 04          	mov    %eax,0x4(%esp)
 8048823:	c7 04 24 7c af 04 08 	movl   $0x804af7c,(%esp)
 804882a:	e8 80 fc ff ff       	call   80484af <fail>
          file_name, file_size, size);

  msg ("verified contents of \"%s\"", file_name);
 804882f:	8b 45 0c             	mov    0xc(%ebp),%eax
 8048832:	89 44 24 04          	mov    %eax,0x4(%esp)
 8048836:	c7 04 24 e1 af 04 08 	movl   $0x804afe1,(%esp)
 804883d:	e8 37 fc ff ff       	call   8048479 <msg>
}
 8048842:	c9                   	leave  
 8048843:	c3                   	ret    

08048844 <check_file>:

void
check_file (const char *file_name, const void *buf, size_t size) 
{
 8048844:	55                   	push   %ebp
 8048845:	89 e5                	mov    %esp,%ebp
 8048847:	83 ec 28             	sub    $0x28,%esp
  int fd;

  CHECK ((fd = open (file_name)) > 1, "open \"%s\" for verification",
 804884a:	8b 45 08             	mov    0x8(%ebp),%eax
 804884d:	89 44 24 04          	mov    %eax,0x4(%esp)
 8048851:	c7 04 24 fb af 04 08 	movl   $0x804affb,(%esp)
 8048858:	e8 1c fc ff ff       	call   8048479 <msg>
 804885d:	8b 45 08             	mov    0x8(%ebp),%eax
 8048860:	89 04 24             	mov    %eax,(%esp)
 8048863:	e8 08 23 00 00       	call   804ab70 <open>
 8048868:	89 45 f4             	mov    %eax,-0xc(%ebp)
 804886b:	83 7d f4 01          	cmpl   $0x1,-0xc(%ebp)
 804886f:	7f 13                	jg     8048884 <check_file+0x40>
 8048871:	8b 45 08             	mov    0x8(%ebp),%eax
 8048874:	89 44 24 04          	mov    %eax,0x4(%esp)
 8048878:	c7 04 24 fb af 04 08 	movl   $0x804affb,(%esp)
 804887f:	e8 2b fc ff ff       	call   80484af <fail>
         file_name);
  check_file_handle (fd, file_name, buf, size);
 8048884:	8b 45 10             	mov    0x10(%ebp),%eax
 8048887:	89 44 24 0c          	mov    %eax,0xc(%esp)
 804888b:	8b 45 0c             	mov    0xc(%ebp),%eax
 804888e:	89 44 24 08          	mov    %eax,0x8(%esp)
 8048892:	8b 45 08             	mov    0x8(%ebp),%eax
 8048895:	89 44 24 04          	mov    %eax,0x4(%esp)
 8048899:	8b 45 f4             	mov    -0xc(%ebp),%eax
 804889c:	89 04 24             	mov    %eax,(%esp)
 804889f:	e8 5d fe ff ff       	call   8048701 <check_file_handle>
  msg ("close \"%s\"", file_name);
 80488a4:	8b 45 08             	mov    0x8(%ebp),%eax
 80488a7:	89 44 24 04          	mov    %eax,0x4(%esp)
 80488ab:	c7 04 24 16 b0 04 08 	movl   $0x804b016,(%esp)
 80488b2:	e8 c2 fb ff ff       	call   8048479 <msg>
  close (fd);
 80488b7:	8b 45 f4             	mov    -0xc(%ebp),%eax
 80488ba:	89 04 24             	mov    %eax,(%esp)
 80488bd:	e8 4a 23 00 00       	call   804ac0c <close>
}
 80488c2:	c9                   	leave  
 80488c3:	c3                   	ret    

080488c4 <compare_bytes>:

void
compare_bytes (const void *read_data_, const void *expected_data_, size_t size,
               size_t ofs, const char *file_name) 
{
 80488c4:	55                   	push   %ebp
 80488c5:	89 e5                	mov    %esp,%ebp
 80488c7:	83 ec 38             	sub    $0x38,%esp
  const uint8_t *read_data = read_data_;
 80488ca:	8b 45 08             	mov    0x8(%ebp),%eax
 80488cd:	89 45 e4             	mov    %eax,-0x1c(%ebp)
  const uint8_t *expected_data = expected_data_;
 80488d0:	8b 45 0c             	mov    0xc(%ebp),%eax
 80488d3:	89 45 e8             	mov    %eax,-0x18(%ebp)
  size_t i, j;
  size_t show_cnt;

  if (!memcmp (read_data, expected_data, size))
 80488d6:	8b 45 10             	mov    0x10(%ebp),%eax
 80488d9:	89 44 24 08          	mov    %eax,0x8(%esp)
 80488dd:	8b 45 e8             	mov    -0x18(%ebp),%eax
 80488e0:	89 44 24 04          	mov    %eax,0x4(%esp)
 80488e4:	8b 45 e4             	mov    -0x1c(%ebp),%eax
 80488e7:	89 04 24             	mov    %eax,(%esp)
 80488ea:	e8 85 14 00 00       	call   8049d74 <memcmp>
 80488ef:	85 c0                	test   %eax,%eax
 80488f1:	0f 84 73 01 00 00    	je     8048a6a <compare_bytes+0x1a6>
    return;
  
  for (i = 0; i < size; i++)
 80488f7:	c7 45 ec 00 00 00 00 	movl   $0x0,-0x14(%ebp)
 80488fe:	eb 20                	jmp    8048920 <compare_bytes+0x5c>
    if (read_data[i] != expected_data[i])
 8048900:	8b 45 ec             	mov    -0x14(%ebp),%eax
 8048903:	8b 55 e4             	mov    -0x1c(%ebp),%edx
 8048906:	8d 04 02             	lea    (%edx,%eax,1),%eax
 8048909:	0f b6 10             	movzbl (%eax),%edx
 804890c:	8b 45 ec             	mov    -0x14(%ebp),%eax
 804890f:	8b 4d e8             	mov    -0x18(%ebp),%ecx
 8048912:	8d 04 01             	lea    (%ecx,%eax,1),%eax
 8048915:	0f b6 00             	movzbl (%eax),%eax
 8048918:	38 c2                	cmp    %al,%dl
 804891a:	75 0e                	jne    804892a <compare_bytes+0x66>
  size_t show_cnt;

  if (!memcmp (read_data, expected_data, size))
    return;
  
  for (i = 0; i < size; i++)
 804891c:	83 45 ec 01          	addl   $0x1,-0x14(%ebp)
 8048920:	8b 45 ec             	mov    -0x14(%ebp),%eax
 8048923:	3b 45 10             	cmp    0x10(%ebp),%eax
 8048926:	72 d8                	jb     8048900 <compare_bytes+0x3c>
 8048928:	eb 01                	jmp    804892b <compare_bytes+0x67>
    if (read_data[i] != expected_data[i])
      break;
 804892a:	90                   	nop
  for (j = i + 1; j < size; j++)
 804892b:	8b 45 ec             	mov    -0x14(%ebp),%eax
 804892e:	83 c0 01             	add    $0x1,%eax
 8048931:	89 45 f0             	mov    %eax,-0x10(%ebp)
 8048934:	eb 20                	jmp    8048956 <compare_bytes+0x92>
    if (read_data[j] == expected_data[j])
 8048936:	8b 45 f0             	mov    -0x10(%ebp),%eax
 8048939:	8b 55 e4             	mov    -0x1c(%ebp),%edx
 804893c:	8d 04 02             	lea    (%edx,%eax,1),%eax
 804893f:	0f b6 10             	movzbl (%eax),%edx
 8048942:	8b 45 f0             	mov    -0x10(%ebp),%eax
 8048945:	8b 4d e8             	mov    -0x18(%ebp),%ecx
 8048948:	8d 04 01             	lea    (%ecx,%eax,1),%eax
 804894b:	0f b6 00             	movzbl (%eax),%eax
 804894e:	38 c2                	cmp    %al,%dl
 8048950:	74 0e                	je     8048960 <compare_bytes+0x9c>
    return;
  
  for (i = 0; i < size; i++)
    if (read_data[i] != expected_data[i])
      break;
  for (j = i + 1; j < size; j++)
 8048952:	83 45 f0 01          	addl   $0x1,-0x10(%ebp)
 8048956:	8b 45 f0             	mov    -0x10(%ebp),%eax
 8048959:	3b 45 10             	cmp    0x10(%ebp),%eax
 804895c:	72 d8                	jb     8048936 <compare_bytes+0x72>
 804895e:	eb 01                	jmp    8048961 <compare_bytes+0x9d>
    if (read_data[j] == expected_data[j])
      break;
 8048960:	90                   	nop

  quiet = false;
 8048961:	c6 05 40 ca 04 08 00 	movb   $0x0,0x804ca40
  msg ("%zu bytes read starting at offset %zu in \"%s\" differ "
 8048968:	8b 45 ec             	mov    -0x14(%ebp),%eax
 804896b:	8b 55 14             	mov    0x14(%ebp),%edx
 804896e:	8d 0c 02             	lea    (%edx,%eax,1),%ecx
 8048971:	8b 45 ec             	mov    -0x14(%ebp),%eax
 8048974:	8b 55 f0             	mov    -0x10(%ebp),%edx
 8048977:	29 c2                	sub    %eax,%edx
 8048979:	8b 45 18             	mov    0x18(%ebp),%eax
 804897c:	89 44 24 0c          	mov    %eax,0xc(%esp)
 8048980:	89 4c 24 08          	mov    %ecx,0x8(%esp)
 8048984:	89 54 24 04          	mov    %edx,0x4(%esp)
 8048988:	c7 04 24 24 b0 04 08 	movl   $0x804b024,(%esp)
 804898f:	e8 e5 fa ff ff       	call   8048479 <msg>
       "from expected.", j - i, ofs + i, file_name);
  show_cnt = j - i;
 8048994:	8b 45 ec             	mov    -0x14(%ebp),%eax
 8048997:	8b 55 f0             	mov    -0x10(%ebp),%edx
 804899a:	89 d1                	mov    %edx,%ecx
 804899c:	29 c1                	sub    %eax,%ecx
 804899e:	89 c8                	mov    %ecx,%eax
 80489a0:	89 45 f4             	mov    %eax,-0xc(%ebp)
  if (j - i > 64) 
 80489a3:	8b 45 ec             	mov    -0x14(%ebp),%eax
 80489a6:	8b 55 f0             	mov    -0x10(%ebp),%edx
 80489a9:	89 d1                	mov    %edx,%ecx
 80489ab:	29 c1                	sub    %eax,%ecx
 80489ad:	89 c8                	mov    %ecx,%eax
 80489af:	83 f8 40             	cmp    $0x40,%eax
 80489b2:	76 1a                	jbe    80489ce <compare_bytes+0x10a>
    {
      show_cnt = 64;
 80489b4:	c7 45 f4 40 00 00 00 	movl   $0x40,-0xc(%ebp)
      msg ("Showing first differing %zu bytes.", show_cnt);
 80489bb:	8b 45 f4             	mov    -0xc(%ebp),%eax
 80489be:	89 44 24 04          	mov    %eax,0x4(%esp)
 80489c2:	c7 04 24 68 b0 04 08 	movl   $0x804b068,(%esp)
 80489c9:	e8 ab fa ff ff       	call   8048479 <msg>
    }
  msg ("Data actually read:");
 80489ce:	c7 04 24 8b b0 04 08 	movl   $0x804b08b,(%esp)
 80489d5:	e8 9f fa ff ff       	call   8048479 <msg>
  hex_dump (ofs + i, read_data + i, show_cnt, true);
 80489da:	8b 45 ec             	mov    -0x14(%ebp),%eax
 80489dd:	8b 55 e4             	mov    -0x1c(%ebp),%edx
 80489e0:	8d 0c 02             	lea    (%edx,%eax,1),%ecx
 80489e3:	8b 45 ec             	mov    -0x14(%ebp),%eax
 80489e6:	8b 55 14             	mov    0x14(%ebp),%edx
 80489e9:	01 c2                	add    %eax,%edx
 80489eb:	c7 44 24 0c 01 00 00 	movl   $0x1,0xc(%esp)
 80489f2:	00 
 80489f3:	8b 45 f4             	mov    -0xc(%ebp),%eax
 80489f6:	89 44 24 08          	mov    %eax,0x8(%esp)
 80489fa:	89 4c 24 04          	mov    %ecx,0x4(%esp)
 80489fe:	89 14 24             	mov    %edx,(%esp)
 8048a01:	e8 e7 0f 00 00       	call   80499ed <hex_dump>
  msg ("Expected data:");
 8048a06:	c7 04 24 9f b0 04 08 	movl   $0x804b09f,(%esp)
 8048a0d:	e8 67 fa ff ff       	call   8048479 <msg>
  hex_dump (ofs + i, expected_data + i, show_cnt, true);
 8048a12:	8b 45 ec             	mov    -0x14(%ebp),%eax
 8048a15:	8b 55 e8             	mov    -0x18(%ebp),%edx
 8048a18:	8d 0c 02             	lea    (%edx,%eax,1),%ecx
 8048a1b:	8b 45 ec             	mov    -0x14(%ebp),%eax
 8048a1e:	8b 55 14             	mov    0x14(%ebp),%edx
 8048a21:	01 c2                	add    %eax,%edx
 8048a23:	c7 44 24 0c 01 00 00 	movl   $0x1,0xc(%esp)
 8048a2a:	00 
 8048a2b:	8b 45 f4             	mov    -0xc(%ebp),%eax
 8048a2e:	89 44 24 08          	mov    %eax,0x8(%esp)
 8048a32:	89 4c 24 04          	mov    %ecx,0x4(%esp)
 8048a36:	89 14 24             	mov    %edx,(%esp)
 8048a39:	e8 af 0f 00 00       	call   80499ed <hex_dump>
  fail ("%zu bytes read starting at offset %zu in \"%s\" differ "
 8048a3e:	8b 45 ec             	mov    -0x14(%ebp),%eax
 8048a41:	8b 55 14             	mov    0x14(%ebp),%edx
 8048a44:	8d 0c 02             	lea    (%edx,%eax,1),%ecx
 8048a47:	8b 45 ec             	mov    -0x14(%ebp),%eax
 8048a4a:	8b 55 f0             	mov    -0x10(%ebp),%edx
 8048a4d:	29 c2                	sub    %eax,%edx
 8048a4f:	8b 45 18             	mov    0x18(%ebp),%eax
 8048a52:	89 44 24 0c          	mov    %eax,0xc(%esp)
 8048a56:	89 4c 24 08          	mov    %ecx,0x8(%esp)
 8048a5a:	89 54 24 04          	mov    %edx,0x4(%esp)
 8048a5e:	c7 04 24 b0 b0 04 08 	movl   $0x804b0b0,(%esp)
 8048a65:	e8 45 fa ff ff       	call   80484af <fail>
        "from expected", j - i, ofs + i, file_name);
}
 8048a6a:	c9                   	leave  
 8048a6b:	c3                   	ret    

08048a6c <main>:
#include "tests/main.h"

/* tests/main.c */
int
main (int argc UNUSED, char *argv[]) 
{
 8048a6c:	55                   	push   %ebp
 8048a6d:	89 e5                	mov    %esp,%ebp
 8048a6f:	83 e4 f0             	and    $0xfffffff0,%esp
 8048a72:	83 ec 10             	sub    $0x10,%esp
  test_name = argv[0];
 8048a75:	8b 45 0c             	mov    0xc(%ebp),%eax
 8048a78:	8b 00                	mov    (%eax),%eax
 8048a7a:	a3 68 cf 04 08       	mov    %eax,0x804cf68

  msg ("begin");
 8048a7f:	c7 04 24 f3 b0 04 08 	movl   $0x804b0f3,(%esp)
 8048a86:	e8 ee f9 ff ff       	call   8048479 <msg>
  random_init (0);
 8048a8b:	c7 04 24 00 00 00 00 	movl   $0x0,(%esp)
 8048a92:	e8 5e 00 00 00       	call   8048af5 <random_init>
  test_main ();
 8048a97:	e8 38 f6 ff ff       	call   80480d4 <test_main>
  msg ("end");
 8048a9c:	c7 04 24 f9 b0 04 08 	movl   $0x804b0f9,(%esp)
 8048aa3:	e8 d1 f9 ff ff       	call   8048479 <msg>
  return 0;
 8048aa8:	b8 00 00 00 00       	mov    $0x0,%eax
}
 8048aad:	c9                   	leave  
 8048aae:	c3                   	ret    
 8048aaf:	90                   	nop

08048ab0 <_start>:
int main (int, char *[]);
void _start (int argc, char *argv[]);

void
_start (int argc, char *argv[]) 
{
 8048ab0:	55                   	push   %ebp
 8048ab1:	89 e5                	mov    %esp,%ebp
 8048ab3:	83 ec 18             	sub    $0x18,%esp
  exit (main (argc, argv));
 8048ab6:	8b 45 0c             	mov    0xc(%ebp),%eax
 8048ab9:	89 44 24 04          	mov    %eax,0x4(%esp)
 8048abd:	8b 45 08             	mov    0x8(%ebp),%eax
 8048ac0:	89 04 24             	mov    %eax,(%esp)
 8048ac3:	e8 a4 ff ff ff       	call   8048a6c <main>
 8048ac8:	89 04 24             	mov    %eax,(%esp)
 8048acb:	e8 fc 1f 00 00       	call   804aacc <exit>

08048ad0 <swap_byte>:
static bool inited;     

/* Swaps the bytes pointed to by A and B. */
static inline void
swap_byte (uint8_t *a, uint8_t *b) 
{
 8048ad0:	55                   	push   %ebp
 8048ad1:	89 e5                	mov    %esp,%ebp
 8048ad3:	83 ec 10             	sub    $0x10,%esp
  uint8_t t = *a;
 8048ad6:	8b 45 08             	mov    0x8(%ebp),%eax
 8048ad9:	0f b6 00             	movzbl (%eax),%eax
 8048adc:	88 45 ff             	mov    %al,-0x1(%ebp)
  *a = *b;
 8048adf:	8b 45 0c             	mov    0xc(%ebp),%eax
 8048ae2:	0f b6 10             	movzbl (%eax),%edx
 8048ae5:	8b 45 08             	mov    0x8(%ebp),%eax
 8048ae8:	88 10                	mov    %dl,(%eax)
  *b = t;
 8048aea:	8b 45 0c             	mov    0xc(%ebp),%eax
 8048aed:	0f b6 55 ff          	movzbl -0x1(%ebp),%edx
 8048af1:	88 10                	mov    %dl,(%eax)
}
 8048af3:	c9                   	leave  
 8048af4:	c3                   	ret    

08048af5 <random_init>:

/* Initializes or reinitializes the PRNG with the given SEED. */
void
random_init (unsigned seed)
{
 8048af5:	55                   	push   %ebp
 8048af6:	89 e5                	mov    %esp,%ebp
 8048af8:	83 ec 18             	sub    $0x18,%esp
  uint8_t *seedp = (uint8_t *) &seed;
 8048afb:	8d 45 08             	lea    0x8(%ebp),%eax
 8048afe:	89 45 f4             	mov    %eax,-0xc(%ebp)
  int i;
  uint8_t j;

  for (i = 0; i < 256; i++) 
 8048b01:	c7 45 f8 00 00 00 00 	movl   $0x0,-0x8(%ebp)
 8048b08:	eb 10                	jmp    8048b1a <random_init+0x25>
    s[i] = i;
 8048b0a:	8b 45 f8             	mov    -0x8(%ebp),%eax
 8048b0d:	8b 55 f8             	mov    -0x8(%ebp),%edx
 8048b10:	88 90 60 ce 04 08    	mov    %dl,0x804ce60(%eax)
{
  uint8_t *seedp = (uint8_t *) &seed;
  int i;
  uint8_t j;

  for (i = 0; i < 256; i++) 
 8048b16:	83 45 f8 01          	addl   $0x1,-0x8(%ebp)
 8048b1a:	81 7d f8 ff 00 00 00 	cmpl   $0xff,-0x8(%ebp)
 8048b21:	7e e7                	jle    8048b0a <random_init+0x15>
    s[i] = i;
  for (i = j = 0; i < 256; i++) 
 8048b23:	c6 45 ff 00          	movb   $0x0,-0x1(%ebp)
 8048b27:	c7 45 f8 00 00 00 00 	movl   $0x0,-0x8(%ebp)
 8048b2e:	eb 3e                	jmp    8048b6e <random_init+0x79>
    {
      j += s[i] + seedp[i % sizeof seed];
 8048b30:	8b 45 f8             	mov    -0x8(%ebp),%eax
 8048b33:	0f b6 90 60 ce 04 08 	movzbl 0x804ce60(%eax),%edx
 8048b3a:	8b 45 f8             	mov    -0x8(%ebp),%eax
 8048b3d:	83 e0 03             	and    $0x3,%eax
 8048b40:	03 45 f4             	add    -0xc(%ebp),%eax
 8048b43:	0f b6 00             	movzbl (%eax),%eax
 8048b46:	8d 04 02             	lea    (%edx,%eax,1),%eax
 8048b49:	00 45 ff             	add    %al,-0x1(%ebp)
      swap_byte (s + i, s + j);
 8048b4c:	0f b6 45 ff          	movzbl -0x1(%ebp),%eax
 8048b50:	8d 90 60 ce 04 08    	lea    0x804ce60(%eax),%edx
 8048b56:	8b 45 f8             	mov    -0x8(%ebp),%eax
 8048b59:	05 60 ce 04 08       	add    $0x804ce60,%eax
 8048b5e:	89 54 24 04          	mov    %edx,0x4(%esp)
 8048b62:	89 04 24             	mov    %eax,(%esp)
 8048b65:	e8 66 ff ff ff       	call   8048ad0 <swap_byte>
  int i;
  uint8_t j;

  for (i = 0; i < 256; i++) 
    s[i] = i;
  for (i = j = 0; i < 256; i++) 
 8048b6a:	83 45 f8 01          	addl   $0x1,-0x8(%ebp)
 8048b6e:	81 7d f8 ff 00 00 00 	cmpl   $0xff,-0x8(%ebp)
 8048b75:	7e b9                	jle    8048b30 <random_init+0x3b>
    {
      j += s[i] + seedp[i % sizeof seed];
      swap_byte (s + i, s + j);
    }

  s_i = s_j = 0;
 8048b77:	c6 05 61 cf 04 08 00 	movb   $0x0,0x804cf61
 8048b7e:	0f b6 05 61 cf 04 08 	movzbl 0x804cf61,%eax
 8048b85:	a2 60 cf 04 08       	mov    %al,0x804cf60
  inited = true;
 8048b8a:	c6 05 62 cf 04 08 01 	movb   $0x1,0x804cf62
}
 8048b91:	c9                   	leave  
 8048b92:	c3                   	ret    

08048b93 <random_bytes>:

/* Writes SIZE random bytes into BUF. */
void
random_bytes (void *buf_, size_t size) 
{
 8048b93:	55                   	push   %ebp
 8048b94:	89 e5                	mov    %esp,%ebp
 8048b96:	83 ec 18             	sub    $0x18,%esp
  uint8_t *buf;

  if (!inited)
 8048b99:	0f b6 05 62 cf 04 08 	movzbl 0x804cf62,%eax
 8048ba0:	83 f0 01             	xor    $0x1,%eax
 8048ba3:	84 c0                	test   %al,%al
 8048ba5:	74 0c                	je     8048bb3 <random_bytes+0x20>
    random_init (0);
 8048ba7:	c7 04 24 00 00 00 00 	movl   $0x0,(%esp)
 8048bae:	e8 42 ff ff ff       	call   8048af5 <random_init>

  for (buf = buf_; size-- > 0; buf++)
 8048bb3:	8b 45 08             	mov    0x8(%ebp),%eax
 8048bb6:	89 45 f8             	mov    %eax,-0x8(%ebp)
 8048bb9:	e9 96 00 00 00       	jmp    8048c54 <random_bytes+0xc1>
    {
      uint8_t s_k;
      
      s_i++;
 8048bbe:	0f b6 05 60 cf 04 08 	movzbl 0x804cf60,%eax
 8048bc5:	83 c0 01             	add    $0x1,%eax
 8048bc8:	a2 60 cf 04 08       	mov    %al,0x804cf60
      s_j += s[s_i];
 8048bcd:	0f b6 05 60 cf 04 08 	movzbl 0x804cf60,%eax
 8048bd4:	0f b6 c0             	movzbl %al,%eax
 8048bd7:	0f b6 90 60 ce 04 08 	movzbl 0x804ce60(%eax),%edx
 8048bde:	0f b6 05 61 cf 04 08 	movzbl 0x804cf61,%eax
 8048be5:	8d 04 02             	lea    (%edx,%eax,1),%eax
 8048be8:	a2 61 cf 04 08       	mov    %al,0x804cf61
      swap_byte (s + s_i, s + s_j);
 8048bed:	0f b6 05 61 cf 04 08 	movzbl 0x804cf61,%eax
 8048bf4:	0f b6 c0             	movzbl %al,%eax
 8048bf7:	8d 90 60 ce 04 08    	lea    0x804ce60(%eax),%edx
 8048bfd:	0f b6 05 60 cf 04 08 	movzbl 0x804cf60,%eax
 8048c04:	0f b6 c0             	movzbl %al,%eax
 8048c07:	05 60 ce 04 08       	add    $0x804ce60,%eax
 8048c0c:	89 54 24 04          	mov    %edx,0x4(%esp)
 8048c10:	89 04 24             	mov    %eax,(%esp)
 8048c13:	e8 b8 fe ff ff       	call   8048ad0 <swap_byte>

      s_k = s[s_i] + s[s_j];
 8048c18:	0f b6 05 60 cf 04 08 	movzbl 0x804cf60,%eax
 8048c1f:	0f b6 c0             	movzbl %al,%eax
 8048c22:	0f b6 90 60 ce 04 08 	movzbl 0x804ce60(%eax),%edx
 8048c29:	0f b6 05 61 cf 04 08 	movzbl 0x804cf61,%eax
 8048c30:	0f b6 c0             	movzbl %al,%eax
 8048c33:	0f b6 80 60 ce 04 08 	movzbl 0x804ce60(%eax),%eax
 8048c3a:	8d 04 02             	lea    (%edx,%eax,1),%eax
 8048c3d:	88 45 ff             	mov    %al,-0x1(%ebp)
      *buf = s[s_k];
 8048c40:	0f b6 45 ff          	movzbl -0x1(%ebp),%eax
 8048c44:	0f b6 90 60 ce 04 08 	movzbl 0x804ce60(%eax),%edx
 8048c4b:	8b 45 f8             	mov    -0x8(%ebp),%eax
 8048c4e:	88 10                	mov    %dl,(%eax)
  uint8_t *buf;

  if (!inited)
    random_init (0);

  for (buf = buf_; size-- > 0; buf++)
 8048c50:	83 45 f8 01          	addl   $0x1,-0x8(%ebp)
 8048c54:	83 7d 0c 00          	cmpl   $0x0,0xc(%ebp)
 8048c58:	0f 95 c0             	setne  %al
 8048c5b:	83 6d 0c 01          	subl   $0x1,0xc(%ebp)
 8048c5f:	84 c0                	test   %al,%al
 8048c61:	0f 85 57 ff ff ff    	jne    8048bbe <random_bytes+0x2b>
      swap_byte (s + s_i, s + s_j);

      s_k = s[s_i] + s[s_j];
      *buf = s[s_k];
    }
}
 8048c67:	c9                   	leave  
 8048c68:	c3                   	ret    

08048c69 <random_ulong>:
/* Returns a pseudo-random unsigned long.
   Use random_ulong() % n to obtain a random number in the range
   0...n (exclusive). */
unsigned long
random_ulong (void) 
{
 8048c69:	55                   	push   %ebp
 8048c6a:	89 e5                	mov    %esp,%ebp
 8048c6c:	83 ec 18             	sub    $0x18,%esp
  unsigned long ul;
  random_bytes (&ul, sizeof ul);
 8048c6f:	c7 44 24 04 04 00 00 	movl   $0x4,0x4(%esp)
 8048c76:	00 
 8048c77:	8d 45 fc             	lea    -0x4(%ebp),%eax
 8048c7a:	89 04 24             	mov    %eax,(%esp)
 8048c7d:	e8 11 ff ff ff       	call   8048b93 <random_bytes>
  return ul;
 8048c82:	8b 45 fc             	mov    -0x4(%ebp),%eax
}
 8048c85:	c9                   	leave  
 8048c86:	c3                   	ret    
 8048c87:	90                   	nop

08048c88 <isdigit>:
#define __LIB_CTYPE_H

static inline int islower (int c) { return c >= 'a' && c <= 'z'; }
static inline int isupper (int c) { return c >= 'A' && c <= 'Z'; }
static inline int isalpha (int c) { return islower (c) || isupper (c); }
static inline int isdigit (int c) { return c >= '0' && c <= '9'; }
 8048c88:	55                   	push   %ebp
 8048c89:	89 e5                	mov    %esp,%ebp
 8048c8b:	83 7d 08 2f          	cmpl   $0x2f,0x8(%ebp)
 8048c8f:	7e 0d                	jle    8048c9e <isdigit+0x16>
 8048c91:	83 7d 08 39          	cmpl   $0x39,0x8(%ebp)
 8048c95:	7f 07                	jg     8048c9e <isdigit+0x16>
 8048c97:	b8 01 00 00 00       	mov    $0x1,%eax
 8048c9c:	eb 05                	jmp    8048ca3 <isdigit+0x1b>
 8048c9e:	b8 00 00 00 00       	mov    $0x0,%eax
 8048ca3:	5d                   	pop    %ebp
 8048ca4:	c3                   	ret    

08048ca5 <isprint>:
  return (c == ' ' || c == '\f' || c == '\n'
          || c == '\r' || c == '\t' || c == '\v');
}
static inline int isblank (int c) { return c == ' ' || c == '\t'; }
static inline int isgraph (int c) { return c > 32 && c < 127; }
static inline int isprint (int c) { return c >= 32 && c < 127; }
 8048ca5:	55                   	push   %ebp
 8048ca6:	89 e5                	mov    %esp,%ebp
 8048ca8:	83 7d 08 1f          	cmpl   $0x1f,0x8(%ebp)
 8048cac:	7e 0d                	jle    8048cbb <isprint+0x16>
 8048cae:	83 7d 08 7e          	cmpl   $0x7e,0x8(%ebp)
 8048cb2:	7f 07                	jg     8048cbb <isprint+0x16>
 8048cb4:	b8 01 00 00 00       	mov    $0x1,%eax
 8048cb9:	eb 05                	jmp    8048cc0 <isprint+0x1b>
 8048cbb:	b8 00 00 00 00       	mov    $0x0,%eax
 8048cc0:	5d                   	pop    %ebp
 8048cc1:	c3                   	ret    

08048cc2 <vsnprintf>:
int
vsnprintf (char *buffer, size_t buf_size, const char *format, va_list args) 
{
  /* Set up aux data for vsnprintf_helper(). */
  struct vsnprintf_aux aux;
  aux.p = buffer;
 8048cc2:	55                   	push   %ebp
 8048cc3:	89 e5                	mov    %esp,%ebp
 8048cc5:	83 ec 28             	sub    $0x28,%esp
 8048cc8:	8b 45 08             	mov    0x8(%ebp),%eax
 8048ccb:	89 45 ec             	mov    %eax,-0x14(%ebp)
  aux.length = 0;
 8048cce:	c7 45 f0 00 00 00 00 	movl   $0x0,-0x10(%ebp)
  aux.max_length = buf_size > 0 ? buf_size - 1 : 0;
 8048cd5:	83 7d 0c 00          	cmpl   $0x0,0xc(%ebp)
 8048cd9:	74 08                	je     8048ce3 <vsnprintf+0x21>
 8048cdb:	8b 45 0c             	mov    0xc(%ebp),%eax
 8048cde:	83 e8 01             	sub    $0x1,%eax
 8048ce1:	eb 05                	jmp    8048ce8 <vsnprintf+0x26>
 8048ce3:	b8 00 00 00 00       	mov    $0x0,%eax
 8048ce8:	89 45 f4             	mov    %eax,-0xc(%ebp)

  /* Do most of the work. */
  __vprintf (format, args, vsnprintf_helper, &aux);
 8048ceb:	8d 45 ec             	lea    -0x14(%ebp),%eax
 8048cee:	89 44 24 0c          	mov    %eax,0xc(%esp)
 8048cf2:	c7 44 24 08 1d 8d 04 	movl   $0x8048d1d,0x8(%esp)
 8048cf9:	08 
 8048cfa:	8b 45 14             	mov    0x14(%ebp),%eax
 8048cfd:	89 44 24 04          	mov    %eax,0x4(%esp)
 8048d01:	8b 45 10             	mov    0x10(%ebp),%eax
 8048d04:	89 04 24             	mov    %eax,(%esp)
 8048d07:	e8 b0 00 00 00       	call   8048dbc <__vprintf>

  /* Add null terminator. */
  if (buf_size > 0)
 8048d0c:	83 7d 0c 00          	cmpl   $0x0,0xc(%ebp)
 8048d10:	74 06                	je     8048d18 <vsnprintf+0x56>
    *aux.p = '\0';
 8048d12:	8b 45 ec             	mov    -0x14(%ebp),%eax
 8048d15:	c6 00 00             	movb   $0x0,(%eax)

  return aux.length;
 8048d18:	8b 45 f0             	mov    -0x10(%ebp),%eax
}
 8048d1b:	c9                   	leave  
 8048d1c:	c3                   	ret    

08048d1d <vsnprintf_helper>:

/* Helper function for vsnprintf(). */
static void
vsnprintf_helper (char ch, void *aux_)
{
 8048d1d:	55                   	push   %ebp
 8048d1e:	89 e5                	mov    %esp,%ebp
 8048d20:	83 ec 14             	sub    $0x14,%esp
 8048d23:	8b 45 08             	mov    0x8(%ebp),%eax
 8048d26:	88 45 ec             	mov    %al,-0x14(%ebp)
  struct vsnprintf_aux *aux = aux_;
 8048d29:	8b 45 0c             	mov    0xc(%ebp),%eax
 8048d2c:	89 45 fc             	mov    %eax,-0x4(%ebp)

  if (aux->length++ < aux->max_length)
 8048d2f:	8b 45 fc             	mov    -0x4(%ebp),%eax
 8048d32:	8b 40 04             	mov    0x4(%eax),%eax
 8048d35:	8b 55 fc             	mov    -0x4(%ebp),%edx
 8048d38:	8b 52 08             	mov    0x8(%edx),%edx
 8048d3b:	39 d0                	cmp    %edx,%eax
 8048d3d:	0f 9c c2             	setl   %dl
 8048d40:	8d 48 01             	lea    0x1(%eax),%ecx
 8048d43:	8b 45 fc             	mov    -0x4(%ebp),%eax
 8048d46:	89 48 04             	mov    %ecx,0x4(%eax)
 8048d49:	84 d2                	test   %dl,%dl
 8048d4b:	74 13                	je     8048d60 <vsnprintf_helper+0x43>
    *aux->p++ = ch;
 8048d4d:	8b 45 fc             	mov    -0x4(%ebp),%eax
 8048d50:	8b 00                	mov    (%eax),%eax
 8048d52:	0f b6 55 ec          	movzbl -0x14(%ebp),%edx
 8048d56:	88 10                	mov    %dl,(%eax)
 8048d58:	8d 50 01             	lea    0x1(%eax),%edx
 8048d5b:	8b 45 fc             	mov    -0x4(%ebp),%eax
 8048d5e:	89 10                	mov    %edx,(%eax)
}
 8048d60:	c9                   	leave  
 8048d61:	c3                   	ret    

08048d62 <snprintf>:
snprintf (char *buffer, size_t buf_size, const char *format, ...) 
{
  va_list args;
  int retval;

  va_start (args, format);
 8048d62:	55                   	push   %ebp
 8048d63:	89 e5                	mov    %esp,%ebp
 8048d65:	83 ec 28             	sub    $0x28,%esp
 8048d68:	8d 45 14             	lea    0x14(%ebp),%eax
 8048d6b:	89 45 f0             	mov    %eax,-0x10(%ebp)
  retval = vsnprintf (buffer, buf_size, format, args);
 8048d6e:	8b 45 f0             	mov    -0x10(%ebp),%eax
 8048d71:	89 44 24 0c          	mov    %eax,0xc(%esp)
 8048d75:	8b 45 10             	mov    0x10(%ebp),%eax
 8048d78:	89 44 24 08          	mov    %eax,0x8(%esp)
 8048d7c:	8b 45 0c             	mov    0xc(%ebp),%eax
 8048d7f:	89 44 24 04          	mov    %eax,0x4(%esp)
 8048d83:	8b 45 08             	mov    0x8(%ebp),%eax
 8048d86:	89 04 24             	mov    %eax,(%esp)
 8048d89:	e8 34 ff ff ff       	call   8048cc2 <vsnprintf>
 8048d8e:	89 45 f4             	mov    %eax,-0xc(%ebp)
  va_end (args);

  return retval;
 8048d91:	8b 45 f4             	mov    -0xc(%ebp),%eax
}
 8048d94:	c9                   	leave  
 8048d95:	c3                   	ret    

08048d96 <printf>:
printf (const char *format, ...) 
{
  va_list args;
  int retval;

  va_start (args, format);
 8048d96:	55                   	push   %ebp
 8048d97:	89 e5                	mov    %esp,%ebp
 8048d99:	83 ec 28             	sub    $0x28,%esp
 8048d9c:	8d 45 0c             	lea    0xc(%ebp),%eax
 8048d9f:	89 45 f0             	mov    %eax,-0x10(%ebp)
  retval = vprintf (format, args);
 8048da2:	8b 45 f0             	mov    -0x10(%ebp),%eax
 8048da5:	89 44 24 04          	mov    %eax,0x4(%esp)
 8048da9:	8b 45 08             	mov    0x8(%ebp),%eax
 8048dac:	89 04 24             	mov    %eax,(%esp)
 8048daf:	e8 2c 1f 00 00       	call   804ace0 <vprintf>
 8048db4:	89 45 f4             	mov    %eax,-0xc(%ebp)
  va_end (args);

  return retval;
 8048db7:	8b 45 f4             	mov    -0xc(%ebp),%eax
}
 8048dba:	c9                   	leave  
 8048dbb:	c3                   	ret    

08048dbc <__vprintf>:
                           void (*output) (char, void *), void *aux);

void
__vprintf (const char *format, va_list args,
           void (*output) (char, void *), void *aux)
{
 8048dbc:	55                   	push   %ebp
 8048dbd:	89 e5                	mov    %esp,%ebp
 8048dbf:	57                   	push   %edi
 8048dc0:	56                   	push   %esi
 8048dc1:	53                   	push   %ebx
 8048dc2:	83 ec 6c             	sub    $0x6c,%esp
  for (; *format != '\0'; format++)
 8048dc5:	e9 0e 05 00 00       	jmp    80492d8 <__vprintf+0x51c>
    {
      struct printf_conversion c;

      /* Literally copy non-conversions to output. */
      if (*format != '%') 
 8048dca:	8b 45 08             	mov    0x8(%ebp),%eax
 8048dcd:	0f b6 00             	movzbl (%eax),%eax
 8048dd0:	3c 25                	cmp    $0x25,%al
 8048dd2:	74 1d                	je     8048df1 <__vprintf+0x35>
        {
          output (*format, aux);
 8048dd4:	8b 45 08             	mov    0x8(%ebp),%eax
 8048dd7:	0f b6 00             	movzbl (%eax),%eax
 8048dda:	0f be c0             	movsbl %al,%eax
 8048ddd:	8b 55 14             	mov    0x14(%ebp),%edx
 8048de0:	89 54 24 04          	mov    %edx,0x4(%esp)
 8048de4:	89 04 24             	mov    %eax,(%esp)
 8048de7:	8b 45 10             	mov    0x10(%ebp),%eax
 8048dea:	ff d0                	call   *%eax
          continue;
 8048dec:	e9 e3 04 00 00       	jmp    80492d4 <__vprintf+0x518>
        }
      format++;
 8048df1:	83 45 08 01          	addl   $0x1,0x8(%ebp)

      /* %% => %. */
      if (*format == '%') 
 8048df5:	8b 45 08             	mov    0x8(%ebp),%eax
 8048df8:	0f b6 00             	movzbl (%eax),%eax
 8048dfb:	3c 25                	cmp    $0x25,%al
 8048dfd:	75 18                	jne    8048e17 <__vprintf+0x5b>
        {
          output ('%', aux);
 8048dff:	8b 45 14             	mov    0x14(%ebp),%eax
 8048e02:	89 44 24 04          	mov    %eax,0x4(%esp)
 8048e06:	c7 04 24 25 00 00 00 	movl   $0x25,(%esp)
 8048e0d:	8b 45 10             	mov    0x10(%ebp),%eax
 8048e10:	ff d0                	call   *%eax
          continue;
 8048e12:	e9 bd 04 00 00       	jmp    80492d4 <__vprintf+0x518>
        }

      /* Parse conversion specifiers. */
      format = parse_conversion (format, &c, &args);
 8048e17:	8d 45 0c             	lea    0xc(%ebp),%eax
 8048e1a:	89 44 24 08          	mov    %eax,0x8(%esp)
 8048e1e:	8d 45 b8             	lea    -0x48(%ebp),%eax
 8048e21:	89 44 24 04          	mov    %eax,0x4(%esp)
 8048e25:	8b 45 08             	mov    0x8(%ebp),%eax
 8048e28:	89 04 24             	mov    %eax,(%esp)
 8048e2b:	e8 be 04 00 00       	call   80492ee <parse_conversion>
 8048e30:	89 45 08             	mov    %eax,0x8(%ebp)

      /* Do conversion. */
      switch (*format) 
 8048e33:	8b 45 08             	mov    0x8(%ebp),%eax
 8048e36:	0f b6 00             	movzbl (%eax),%eax
 8048e39:	0f be c0             	movsbl %al,%eax
 8048e3c:	83 e8 45             	sub    $0x45,%eax
 8048e3f:	83 f8 33             	cmp    $0x33,%eax
 8048e42:	0f 87 65 04 00 00    	ja     80492ad <__vprintf+0x4f1>
 8048e48:	8b 04 85 e8 b1 04 08 	mov    0x804b1e8(,%eax,4),%eax
 8048e4f:	ff e0                	jmp    *%eax
        case 'i': 
          {
            /* Signed integer conversions. */
            intmax_t value;
            
            switch (c.type) 
 8048e51:	8b 45 c4             	mov    -0x3c(%ebp),%eax
 8048e54:	83 f8 08             	cmp    $0x8,%eax
 8048e57:	0f 87 f5 00 00 00    	ja     8048f52 <__vprintf+0x196>
 8048e5d:	8b 04 85 b8 b2 04 08 	mov    0x804b2b8(,%eax,4),%eax
 8048e64:	ff e0                	jmp    *%eax
              {
              case CHAR: 
                value = (signed char) va_arg (args, int);
 8048e66:	8b 45 0c             	mov    0xc(%ebp),%eax
 8048e69:	8d 50 04             	lea    0x4(%eax),%edx
 8048e6c:	89 55 0c             	mov    %edx,0xc(%ebp)
 8048e6f:	8b 00                	mov    (%eax),%eax
 8048e71:	0f be c0             	movsbl %al,%eax
 8048e74:	89 c2                	mov    %eax,%edx
 8048e76:	c1 fa 1f             	sar    $0x1f,%edx
 8048e79:	89 45 c8             	mov    %eax,-0x38(%ebp)
 8048e7c:	89 55 cc             	mov    %edx,-0x34(%ebp)
                break;
 8048e7f:	e9 f6 00 00 00       	jmp    8048f7a <__vprintf+0x1be>
              case SHORT:
                value = (short) va_arg (args, int);
 8048e84:	8b 45 0c             	mov    0xc(%ebp),%eax
 8048e87:	8d 50 04             	lea    0x4(%eax),%edx
 8048e8a:	89 55 0c             	mov    %edx,0xc(%ebp)
 8048e8d:	8b 00                	mov    (%eax),%eax
 8048e8f:	98                   	cwtl   
 8048e90:	89 c2                	mov    %eax,%edx
 8048e92:	c1 fa 1f             	sar    $0x1f,%edx
 8048e95:	89 45 c8             	mov    %eax,-0x38(%ebp)
 8048e98:	89 55 cc             	mov    %edx,-0x34(%ebp)
                break;
 8048e9b:	e9 da 00 00 00       	jmp    8048f7a <__vprintf+0x1be>
              case INT:
                value = va_arg (args, int);
 8048ea0:	8b 45 0c             	mov    0xc(%ebp),%eax
 8048ea3:	8d 50 04             	lea    0x4(%eax),%edx
 8048ea6:	89 55 0c             	mov    %edx,0xc(%ebp)
 8048ea9:	8b 00                	mov    (%eax),%eax
 8048eab:	89 c2                	mov    %eax,%edx
 8048ead:	c1 fa 1f             	sar    $0x1f,%edx
 8048eb0:	89 45 c8             	mov    %eax,-0x38(%ebp)
 8048eb3:	89 55 cc             	mov    %edx,-0x34(%ebp)
                break;
 8048eb6:	e9 bf 00 00 00       	jmp    8048f7a <__vprintf+0x1be>
              case INTMAX:
                value = va_arg (args, intmax_t);
 8048ebb:	8b 45 0c             	mov    0xc(%ebp),%eax
 8048ebe:	8d 50 08             	lea    0x8(%eax),%edx
 8048ec1:	89 55 0c             	mov    %edx,0xc(%ebp)
 8048ec4:	8b 50 04             	mov    0x4(%eax),%edx
 8048ec7:	8b 00                	mov    (%eax),%eax
 8048ec9:	89 45 c8             	mov    %eax,-0x38(%ebp)
 8048ecc:	89 55 cc             	mov    %edx,-0x34(%ebp)
                break;
 8048ecf:	e9 a6 00 00 00       	jmp    8048f7a <__vprintf+0x1be>
              case LONG:
                value = va_arg (args, long);
 8048ed4:	8b 45 0c             	mov    0xc(%ebp),%eax
 8048ed7:	8d 50 04             	lea    0x4(%eax),%edx
 8048eda:	89 55 0c             	mov    %edx,0xc(%ebp)
 8048edd:	8b 00                	mov    (%eax),%eax
 8048edf:	89 c2                	mov    %eax,%edx
 8048ee1:	c1 fa 1f             	sar    $0x1f,%edx
 8048ee4:	89 45 c8             	mov    %eax,-0x38(%ebp)
 8048ee7:	89 55 cc             	mov    %edx,-0x34(%ebp)
                break;
 8048eea:	e9 8b 00 00 00       	jmp    8048f7a <__vprintf+0x1be>
              case LONGLONG:
                value = va_arg (args, long long);
 8048eef:	8b 45 0c             	mov    0xc(%ebp),%eax
 8048ef2:	8d 50 08             	lea    0x8(%eax),%edx
 8048ef5:	89 55 0c             	mov    %edx,0xc(%ebp)
 8048ef8:	8b 50 04             	mov    0x4(%eax),%edx
 8048efb:	8b 00                	mov    (%eax),%eax
 8048efd:	89 45 c8             	mov    %eax,-0x38(%ebp)
 8048f00:	89 55 cc             	mov    %edx,-0x34(%ebp)
                break;
 8048f03:	eb 75                	jmp    8048f7a <__vprintf+0x1be>
              case PTRDIFFT:
                value = va_arg (args, ptrdiff_t);
 8048f05:	8b 45 0c             	mov    0xc(%ebp),%eax
 8048f08:	8d 50 04             	lea    0x4(%eax),%edx
 8048f0b:	89 55 0c             	mov    %edx,0xc(%ebp)
 8048f0e:	8b 00                	mov    (%eax),%eax
 8048f10:	89 c2                	mov    %eax,%edx
 8048f12:	c1 fa 1f             	sar    $0x1f,%edx
 8048f15:	89 45 c8             	mov    %eax,-0x38(%ebp)
 8048f18:	89 55 cc             	mov    %edx,-0x34(%ebp)
                break;
 8048f1b:	eb 5d                	jmp    8048f7a <__vprintf+0x1be>
              case SIZET:
                value = va_arg (args, size_t);
 8048f1d:	8b 45 0c             	mov    0xc(%ebp),%eax
 8048f20:	8d 50 04             	lea    0x4(%eax),%edx
 8048f23:	89 55 0c             	mov    %edx,0xc(%ebp)
 8048f26:	8b 00                	mov    (%eax),%eax
 8048f28:	ba 00 00 00 00       	mov    $0x0,%edx
 8048f2d:	89 45 c8             	mov    %eax,-0x38(%ebp)
 8048f30:	89 55 cc             	mov    %edx,-0x34(%ebp)
                if (value > SIZE_MAX / 2)
 8048f33:	83 7d cc 00          	cmpl   $0x0,-0x34(%ebp)
 8048f37:	78 3d                	js     8048f76 <__vprintf+0x1ba>
 8048f39:	83 7d cc 00          	cmpl   $0x0,-0x34(%ebp)
 8048f3d:	7f 09                	jg     8048f48 <__vprintf+0x18c>
 8048f3f:	81 7d c8 ff ff ff 7f 	cmpl   $0x7fffffff,-0x38(%ebp)
 8048f46:	76 31                	jbe    8048f79 <__vprintf+0x1bd>
                  value = value - SIZE_MAX - 1;
 8048f48:	83 45 c8 00          	addl   $0x0,-0x38(%ebp)
 8048f4c:	83 55 cc ff          	adcl   $0xffffffff,-0x34(%ebp)
                break;
 8048f50:	eb 28                	jmp    8048f7a <__vprintf+0x1be>
              default:
                NOT_REACHED ();
 8048f52:	c7 44 24 0c 80 b1 04 	movl   $0x804b180,0xc(%esp)
 8048f59:	08 
 8048f5a:	c7 44 24 08 a5 b3 04 	movl   $0x804b3a5,0x8(%esp)
 8048f61:	08 
 8048f62:	c7 44 24 04 dc 00 00 	movl   $0xdc,0x4(%esp)
 8048f69:	00 
 8048f6a:	c7 04 24 a2 b1 04 08 	movl   $0x804b1a2,(%esp)
 8048f71:	e8 c6 1a 00 00       	call   804aa3c <debug_panic>
                break;
              case SIZET:
                value = va_arg (args, size_t);
                if (value > SIZE_MAX / 2)
                  value = value - SIZE_MAX - 1;
                break;
 8048f76:	90                   	nop
 8048f77:	eb 01                	jmp    8048f7a <__vprintf+0x1be>
 8048f79:	90                   	nop
              default:
                NOT_REACHED ();
              }

            format_integer (value < 0 ? -value : value,
 8048f7a:	8b 45 cc             	mov    -0x34(%ebp),%eax
 8048f7d:	89 c7                	mov    %eax,%edi
 8048f7f:	c1 ef 1f             	shr    $0x1f,%edi
 8048f82:	8b 45 c8             	mov    -0x38(%ebp),%eax
 8048f85:	8b 55 cc             	mov    -0x34(%ebp),%edx
 8048f88:	89 d2                	mov    %edx,%edx
 8048f8a:	c1 fa 1f             	sar    $0x1f,%edx
 8048f8d:	89 d0                	mov    %edx,%eax
 8048f8f:	89 c3                	mov    %eax,%ebx
 8048f91:	33 5d c8             	xor    -0x38(%ebp),%ebx
 8048f94:	89 d6                	mov    %edx,%esi
 8048f96:	33 75 cc             	xor    -0x34(%ebp),%esi
 8048f99:	29 c3                	sub    %eax,%ebx
 8048f9b:	19 d6                	sbb    %edx,%esi
 8048f9d:	89 d8                	mov    %ebx,%eax
 8048f9f:	89 f2                	mov    %esi,%edx
 8048fa1:	8b 4d 14             	mov    0x14(%ebp),%ecx
 8048fa4:	89 4c 24 1c          	mov    %ecx,0x1c(%esp)
 8048fa8:	8b 4d 10             	mov    0x10(%ebp),%ecx
 8048fab:	89 4c 24 18          	mov    %ecx,0x18(%esp)
 8048faf:	8d 4d b8             	lea    -0x48(%ebp),%ecx
 8048fb2:	89 4c 24 14          	mov    %ecx,0x14(%esp)
 8048fb6:	c7 44 24 10 0c b1 04 	movl   $0x804b10c,0x10(%esp)
 8048fbd:	08 
 8048fbe:	89 7c 24 0c          	mov    %edi,0xc(%esp)
 8048fc2:	c7 44 24 08 01 00 00 	movl   $0x1,0x8(%esp)
 8048fc9:	00 
 8048fca:	89 04 24             	mov    %eax,(%esp)
 8048fcd:	89 54 24 04          	mov    %edx,0x4(%esp)
 8048fd1:	e8 e1 05 00 00       	call   80495b7 <format_integer>
                            true, value < 0, &base_d, &c, output, aux);
          }
          break;
 8048fd6:	e9 f9 02 00 00       	jmp    80492d4 <__vprintf+0x518>
          {
            /* Unsigned integer conversions. */
            uintmax_t value;
            const struct integer_base *b;

            switch (c.type) 
 8048fdb:	8b 45 c4             	mov    -0x3c(%ebp),%eax
 8048fde:	83 f8 08             	cmp    $0x8,%eax
 8048fe1:	0f 87 df 00 00 00    	ja     80490c6 <__vprintf+0x30a>
 8048fe7:	8b 04 85 dc b2 04 08 	mov    0x804b2dc(,%eax,4),%eax
 8048fee:	ff e0                	jmp    *%eax
              {
              case CHAR: 
                value = (unsigned char) va_arg (args, unsigned);
 8048ff0:	8b 45 0c             	mov    0xc(%ebp),%eax
 8048ff3:	8d 50 04             	lea    0x4(%eax),%edx
 8048ff6:	89 55 0c             	mov    %edx,0xc(%ebp)
 8048ff9:	8b 00                	mov    (%eax),%eax
 8048ffb:	0f b6 c0             	movzbl %al,%eax
 8048ffe:	ba 00 00 00 00       	mov    $0x0,%edx
 8049003:	89 45 d0             	mov    %eax,-0x30(%ebp)
 8049006:	89 55 d4             	mov    %edx,-0x2c(%ebp)
                break;
 8049009:	e9 dc 00 00 00       	jmp    80490ea <__vprintf+0x32e>
              case SHORT:
                value = (unsigned short) va_arg (args, unsigned);
 804900e:	8b 45 0c             	mov    0xc(%ebp),%eax
 8049011:	8d 50 04             	lea    0x4(%eax),%edx
 8049014:	89 55 0c             	mov    %edx,0xc(%ebp)
 8049017:	8b 00                	mov    (%eax),%eax
 8049019:	0f b7 c0             	movzwl %ax,%eax
 804901c:	ba 00 00 00 00       	mov    $0x0,%edx
 8049021:	89 45 d0             	mov    %eax,-0x30(%ebp)
 8049024:	89 55 d4             	mov    %edx,-0x2c(%ebp)
                break;
 8049027:	e9 be 00 00 00       	jmp    80490ea <__vprintf+0x32e>
              case INT:
                value = va_arg (args, unsigned);
 804902c:	8b 45 0c             	mov    0xc(%ebp),%eax
 804902f:	8d 50 04             	lea    0x4(%eax),%edx
 8049032:	89 55 0c             	mov    %edx,0xc(%ebp)
 8049035:	8b 00                	mov    (%eax),%eax
 8049037:	ba 00 00 00 00       	mov    $0x0,%edx
 804903c:	89 45 d0             	mov    %eax,-0x30(%ebp)
 804903f:	89 55 d4             	mov    %edx,-0x2c(%ebp)
                break;
 8049042:	e9 a3 00 00 00       	jmp    80490ea <__vprintf+0x32e>
              case INTMAX:
                value = va_arg (args, uintmax_t);
 8049047:	8b 45 0c             	mov    0xc(%ebp),%eax
 804904a:	8d 50 08             	lea    0x8(%eax),%edx
 804904d:	89 55 0c             	mov    %edx,0xc(%ebp)
 8049050:	8b 50 04             	mov    0x4(%eax),%edx
 8049053:	8b 00                	mov    (%eax),%eax
 8049055:	89 45 d0             	mov    %eax,-0x30(%ebp)
 8049058:	89 55 d4             	mov    %edx,-0x2c(%ebp)
                break;
 804905b:	e9 8a 00 00 00       	jmp    80490ea <__vprintf+0x32e>
              case LONG:
                value = va_arg (args, unsigned long);
 8049060:	8b 45 0c             	mov    0xc(%ebp),%eax
 8049063:	8d 50 04             	lea    0x4(%eax),%edx
 8049066:	89 55 0c             	mov    %edx,0xc(%ebp)
 8049069:	8b 00                	mov    (%eax),%eax
 804906b:	ba 00 00 00 00       	mov    $0x0,%edx
 8049070:	89 45 d0             	mov    %eax,-0x30(%ebp)
 8049073:	89 55 d4             	mov    %edx,-0x2c(%ebp)
                break;
 8049076:	eb 72                	jmp    80490ea <__vprintf+0x32e>
              case LONGLONG:
                value = va_arg (args, unsigned long long);
 8049078:	8b 45 0c             	mov    0xc(%ebp),%eax
 804907b:	8d 50 08             	lea    0x8(%eax),%edx
 804907e:	89 55 0c             	mov    %edx,0xc(%ebp)
 8049081:	8b 50 04             	mov    0x4(%eax),%edx
 8049084:	8b 00                	mov    (%eax),%eax
 8049086:	89 45 d0             	mov    %eax,-0x30(%ebp)
 8049089:	89 55 d4             	mov    %edx,-0x2c(%ebp)
                break;
 804908c:	eb 5c                	jmp    80490ea <__vprintf+0x32e>
              case PTRDIFFT:
                value = va_arg (args, ptrdiff_t);
 804908e:	8b 45 0c             	mov    0xc(%ebp),%eax
 8049091:	8d 50 04             	lea    0x4(%eax),%edx
 8049094:	89 55 0c             	mov    %edx,0xc(%ebp)
 8049097:	8b 00                	mov    (%eax),%eax
 8049099:	89 c2                	mov    %eax,%edx
 804909b:	c1 fa 1f             	sar    $0x1f,%edx
 804909e:	89 45 d0             	mov    %eax,-0x30(%ebp)
 80490a1:	89 55 d4             	mov    %edx,-0x2c(%ebp)
#if UINTMAX_MAX != PTRDIFF_MAX
                value &= ((uintmax_t) PTRDIFF_MAX << 1) | 1;
 80490a4:	83 65 d0 ff          	andl   $0xffffffff,-0x30(%ebp)
 80490a8:	83 65 d4 00          	andl   $0x0,-0x2c(%ebp)
#endif
                break;
 80490ac:	eb 3c                	jmp    80490ea <__vprintf+0x32e>
              case SIZET:
                value = va_arg (args, size_t);
 80490ae:	8b 45 0c             	mov    0xc(%ebp),%eax
 80490b1:	8d 50 04             	lea    0x4(%eax),%edx
 80490b4:	89 55 0c             	mov    %edx,0xc(%ebp)
 80490b7:	8b 00                	mov    (%eax),%eax
 80490b9:	ba 00 00 00 00       	mov    $0x0,%edx
 80490be:	89 45 d0             	mov    %eax,-0x30(%ebp)
 80490c1:	89 55 d4             	mov    %edx,-0x2c(%ebp)
                break;
 80490c4:	eb 24                	jmp    80490ea <__vprintf+0x32e>
              default:
                NOT_REACHED ();
 80490c6:	c7 44 24 0c 80 b1 04 	movl   $0x804b180,0xc(%esp)
 80490cd:	08 
 80490ce:	c7 44 24 08 a5 b3 04 	movl   $0x804b3a5,0x8(%esp)
 80490d5:	08 
 80490d6:	c7 44 24 04 0b 01 00 	movl   $0x10b,0x4(%esp)
 80490dd:	00 
 80490de:	c7 04 24 a2 b1 04 08 	movl   $0x804b1a2,(%esp)
 80490e5:	e8 52 19 00 00       	call   804aa3c <debug_panic>
              }

            switch (*format) 
 80490ea:	8b 45 08             	mov    0x8(%ebp),%eax
 80490ed:	0f b6 00             	movzbl (%eax),%eax
 80490f0:	0f be c0             	movsbl %al,%eax
 80490f3:	83 f8 6f             	cmp    $0x6f,%eax
 80490f6:	74 18                	je     8049110 <__vprintf+0x354>
 80490f8:	83 f8 6f             	cmp    $0x6f,%eax
 80490fb:	7f 07                	jg     8049104 <__vprintf+0x348>
 80490fd:	83 f8 58             	cmp    $0x58,%eax
 8049100:	74 29                	je     804912b <__vprintf+0x36f>
 8049102:	eb 30                	jmp    8049134 <__vprintf+0x378>
 8049104:	83 f8 75             	cmp    $0x75,%eax
 8049107:	74 10                	je     8049119 <__vprintf+0x35d>
 8049109:	83 f8 78             	cmp    $0x78,%eax
 804910c:	74 14                	je     8049122 <__vprintf+0x366>
 804910e:	eb 24                	jmp    8049134 <__vprintf+0x378>
              {
              case 'o': b = &base_o; break;
 8049110:	c7 45 dc 28 b1 04 08 	movl   $0x804b128,-0x24(%ebp)
 8049117:	eb 3f                	jmp    8049158 <__vprintf+0x39c>
              case 'u': b = &base_d; break;
 8049119:	c7 45 dc 0c b1 04 08 	movl   $0x804b10c,-0x24(%ebp)
 8049120:	eb 36                	jmp    8049158 <__vprintf+0x39c>
              case 'x': b = &base_x; break;
 8049122:	c7 45 dc 4c b1 04 08 	movl   $0x804b14c,-0x24(%ebp)
 8049129:	eb 2d                	jmp    8049158 <__vprintf+0x39c>
              case 'X': b = &base_X; break;
 804912b:	c7 45 dc 70 b1 04 08 	movl   $0x804b170,-0x24(%ebp)
 8049132:	eb 24                	jmp    8049158 <__vprintf+0x39c>
              default: NOT_REACHED ();
 8049134:	c7 44 24 0c 80 b1 04 	movl   $0x804b180,0xc(%esp)
 804913b:	08 
 804913c:	c7 44 24 08 a5 b3 04 	movl   $0x804b3a5,0x8(%esp)
 8049143:	08 
 8049144:	c7 44 24 04 14 01 00 	movl   $0x114,0x4(%esp)
 804914b:	00 
 804914c:	c7 04 24 a2 b1 04 08 	movl   $0x804b1a2,(%esp)
 8049153:	e8 e4 18 00 00       	call   804aa3c <debug_panic>
              }

            format_integer (value, false, false, b, &c, output, aux);
 8049158:	8b 45 14             	mov    0x14(%ebp),%eax
 804915b:	89 44 24 1c          	mov    %eax,0x1c(%esp)
 804915f:	8b 45 10             	mov    0x10(%ebp),%eax
 8049162:	89 44 24 18          	mov    %eax,0x18(%esp)
 8049166:	8d 45 b8             	lea    -0x48(%ebp),%eax
 8049169:	89 44 24 14          	mov    %eax,0x14(%esp)
 804916d:	8b 45 dc             	mov    -0x24(%ebp),%eax
 8049170:	89 44 24 10          	mov    %eax,0x10(%esp)
 8049174:	c7 44 24 0c 00 00 00 	movl   $0x0,0xc(%esp)
 804917b:	00 
 804917c:	c7 44 24 08 00 00 00 	movl   $0x0,0x8(%esp)
 8049183:	00 
 8049184:	8b 45 d0             	mov    -0x30(%ebp),%eax
 8049187:	8b 55 d4             	mov    -0x2c(%ebp),%edx
 804918a:	89 04 24             	mov    %eax,(%esp)
 804918d:	89 54 24 04          	mov    %edx,0x4(%esp)
 8049191:	e8 21 04 00 00       	call   80495b7 <format_integer>
          }
          break;
 8049196:	e9 39 01 00 00       	jmp    80492d4 <__vprintf+0x518>

        case 'c': 
          {
            /* Treat character as single-character string. */
            char ch = va_arg (args, int);
 804919b:	8b 45 0c             	mov    0xc(%ebp),%eax
 804919e:	8d 50 04             	lea    0x4(%eax),%edx
 80491a1:	89 55 0c             	mov    %edx,0xc(%ebp)
 80491a4:	8b 00                	mov    (%eax),%eax
 80491a6:	88 45 b7             	mov    %al,-0x49(%ebp)
            format_string (&ch, 1, &c, output, aux);
 80491a9:	8b 45 14             	mov    0x14(%ebp),%eax
 80491ac:	89 44 24 10          	mov    %eax,0x10(%esp)
 80491b0:	8b 45 10             	mov    0x10(%ebp),%eax
 80491b3:	89 44 24 0c          	mov    %eax,0xc(%esp)
 80491b7:	8d 45 b8             	lea    -0x48(%ebp),%eax
 80491ba:	89 44 24 08          	mov    %eax,0x8(%esp)
 80491be:	c7 44 24 04 01 00 00 	movl   $0x1,0x4(%esp)
 80491c5:	00 
 80491c6:	8d 45 b7             	lea    -0x49(%ebp),%eax
 80491c9:	89 04 24             	mov    %eax,(%esp)
 80491cc:	e8 3a 07 00 00       	call   804990b <format_string>
          }
          break;
 80491d1:	e9 fe 00 00 00       	jmp    80492d4 <__vprintf+0x518>

        case 's':
          {
            /* String conversion. */
            const char *s = va_arg (args, char *);
 80491d6:	8b 45 0c             	mov    0xc(%ebp),%eax
 80491d9:	8d 50 04             	lea    0x4(%eax),%edx
 80491dc:	89 55 0c             	mov    %edx,0xc(%ebp)
 80491df:	8b 00                	mov    (%eax),%eax
 80491e1:	89 45 e0             	mov    %eax,-0x20(%ebp)
            if (s == NULL)
 80491e4:	83 7d e0 00          	cmpl   $0x0,-0x20(%ebp)
 80491e8:	75 07                	jne    80491f1 <__vprintf+0x435>
              s = "(null)";
 80491ea:	c7 45 e0 b4 b1 04 08 	movl   $0x804b1b4,-0x20(%ebp)

            /* Limit string length according to precision.
               Note: if c.precision == -1 then strnlen() will get
               SIZE_MAX for MAXLEN, which is just what we want. */
            format_string (s, strnlen (s, c.precision), &c, output, aux);
 80491f1:	8b 45 c0             	mov    -0x40(%ebp),%eax
 80491f4:	89 44 24 04          	mov    %eax,0x4(%esp)
 80491f8:	8b 45 e0             	mov    -0x20(%ebp),%eax
 80491fb:	89 04 24             	mov    %eax,(%esp)
 80491fe:	e8 81 11 00 00       	call   804a384 <strnlen>
 8049203:	8b 55 14             	mov    0x14(%ebp),%edx
 8049206:	89 54 24 10          	mov    %edx,0x10(%esp)
 804920a:	8b 55 10             	mov    0x10(%ebp),%edx
 804920d:	89 54 24 0c          	mov    %edx,0xc(%esp)
 8049211:	8d 55 b8             	lea    -0x48(%ebp),%edx
 8049214:	89 54 24 08          	mov    %edx,0x8(%esp)
 8049218:	89 44 24 04          	mov    %eax,0x4(%esp)
 804921c:	8b 45 e0             	mov    -0x20(%ebp),%eax
 804921f:	89 04 24             	mov    %eax,(%esp)
 8049222:	e8 e4 06 00 00       	call   804990b <format_string>
          }
          break;
 8049227:	e9 a8 00 00 00       	jmp    80492d4 <__vprintf+0x518>
          
        case 'p':
          {
            /* Pointer conversion.
               Format pointers as %#x. */
            void *p = va_arg (args, void *);
 804922c:	8b 45 0c             	mov    0xc(%ebp),%eax
 804922f:	8d 50 04             	lea    0x4(%eax),%edx
 8049232:	89 55 0c             	mov    %edx,0xc(%ebp)
 8049235:	8b 00                	mov    (%eax),%eax
 8049237:	89 45 e4             	mov    %eax,-0x1c(%ebp)

            c.flags = POUND;
 804923a:	c7 45 b8 08 00 00 00 	movl   $0x8,-0x48(%ebp)
            format_integer ((uintptr_t) p, false, false,
 8049241:	8b 45 e4             	mov    -0x1c(%ebp),%eax
 8049244:	ba 00 00 00 00       	mov    $0x0,%edx
 8049249:	8b 4d 14             	mov    0x14(%ebp),%ecx
 804924c:	89 4c 24 1c          	mov    %ecx,0x1c(%esp)
 8049250:	8b 4d 10             	mov    0x10(%ebp),%ecx
 8049253:	89 4c 24 18          	mov    %ecx,0x18(%esp)
 8049257:	8d 4d b8             	lea    -0x48(%ebp),%ecx
 804925a:	89 4c 24 14          	mov    %ecx,0x14(%esp)
 804925e:	c7 44 24 10 4c b1 04 	movl   $0x804b14c,0x10(%esp)
 8049265:	08 
 8049266:	c7 44 24 0c 00 00 00 	movl   $0x0,0xc(%esp)
 804926d:	00 
 804926e:	c7 44 24 08 00 00 00 	movl   $0x0,0x8(%esp)
 8049275:	00 
 8049276:	89 04 24             	mov    %eax,(%esp)
 8049279:	89 54 24 04          	mov    %edx,0x4(%esp)
 804927d:	e8 35 03 00 00       	call   80495b7 <format_integer>
                            &base_x, &c, output, aux);
          }
          break;
 8049282:	eb 50                	jmp    80492d4 <__vprintf+0x518>
        case 'g':
        case 'G':
        case 'n':
          /* We don't support floating-point arithmetic,
             and %n can be part of a security hole. */
          __printf ("<<no %%%c in kernel>>", output, aux, *format);
 8049284:	8b 45 08             	mov    0x8(%ebp),%eax
 8049287:	0f b6 00             	movzbl (%eax),%eax
 804928a:	0f be c0             	movsbl %al,%eax
 804928d:	89 44 24 0c          	mov    %eax,0xc(%esp)
 8049291:	8b 45 14             	mov    0x14(%ebp),%eax
 8049294:	89 44 24 08          	mov    %eax,0x8(%esp)
 8049298:	8b 45 10             	mov    0x10(%ebp),%eax
 804929b:	89 44 24 04          	mov    %eax,0x4(%esp)
 804929f:	c7 04 24 bb b1 04 08 	movl   $0x804b1bb,(%esp)
 80492a6:	e8 14 07 00 00       	call   80499bf <__printf>
          break;
 80492ab:	eb 27                	jmp    80492d4 <__vprintf+0x518>

        default:
          __printf ("<<no %%%c conversion>>", output, aux, *format);
 80492ad:	8b 45 08             	mov    0x8(%ebp),%eax
 80492b0:	0f b6 00             	movzbl (%eax),%eax
 80492b3:	0f be c0             	movsbl %al,%eax
 80492b6:	89 44 24 0c          	mov    %eax,0xc(%esp)
 80492ba:	8b 45 14             	mov    0x14(%ebp),%eax
 80492bd:	89 44 24 08          	mov    %eax,0x8(%esp)
 80492c1:	8b 45 10             	mov    0x10(%ebp),%eax
 80492c4:	89 44 24 04          	mov    %eax,0x4(%esp)
 80492c8:	c7 04 24 d1 b1 04 08 	movl   $0x804b1d1,(%esp)
 80492cf:	e8 eb 06 00 00       	call   80499bf <__printf>

void
__vprintf (const char *format, va_list args,
           void (*output) (char, void *), void *aux)
{
  for (; *format != '\0'; format++)
 80492d4:	83 45 08 01          	addl   $0x1,0x8(%ebp)
 80492d8:	8b 45 08             	mov    0x8(%ebp),%eax
 80492db:	0f b6 00             	movzbl (%eax),%eax
 80492de:	84 c0                	test   %al,%al
 80492e0:	0f 85 e4 fa ff ff    	jne    8048dca <__vprintf+0xe>
        default:
          __printf ("<<no %%%c conversion>>", output, aux, *format);
          break;
        }
    }
}
 80492e6:	83 c4 6c             	add    $0x6c,%esp
 80492e9:	5b                   	pop    %ebx
 80492ea:	5e                   	pop    %esi
 80492eb:	5f                   	pop    %edi
 80492ec:	5d                   	pop    %ebp
 80492ed:	c3                   	ret    

080492ee <parse_conversion>:
   that indicates the conversion (e.g. the `d' in `%d').  Uses
   *ARGS for `*' field widths and precisions. */
static const char *
parse_conversion (const char *format, struct printf_conversion *c,
                  va_list *args) 
{
 80492ee:	55                   	push   %ebp
 80492ef:	89 e5                	mov    %esp,%ebp
 80492f1:	83 ec 04             	sub    $0x4,%esp
  /* Parse flag characters. */
  c->flags = 0;
 80492f4:	8b 45 0c             	mov    0xc(%ebp),%eax
 80492f7:	c7 00 00 00 00 00    	movl   $0x0,(%eax)
  for (;;) 
    {
      switch (*format++) 
 80492fd:	8b 45 08             	mov    0x8(%ebp),%eax
 8049300:	0f b6 00             	movzbl (%eax),%eax
 8049303:	0f be c0             	movsbl %al,%eax
 8049306:	83 45 08 01          	addl   $0x1,0x8(%ebp)
 804930a:	83 e8 20             	sub    $0x20,%eax
 804930d:	83 f8 10             	cmp    $0x10,%eax
 8049310:	77 6f                	ja     8049381 <parse_conversion+0x93>
 8049312:	8b 04 85 00 b3 04 08 	mov    0x804b300(,%eax,4),%eax
 8049319:	ff e0                	jmp    *%eax
        {
        case '-':
          c->flags |= MINUS;
 804931b:	8b 45 0c             	mov    0xc(%ebp),%eax
 804931e:	8b 00                	mov    (%eax),%eax
 8049320:	89 c2                	mov    %eax,%edx
 8049322:	83 ca 01             	or     $0x1,%edx
 8049325:	8b 45 0c             	mov    0xc(%ebp),%eax
 8049328:	89 10                	mov    %edx,(%eax)
          break;
 804932a:	eb 68                	jmp    8049394 <parse_conversion+0xa6>
        case '+':
          c->flags |= PLUS;
 804932c:	8b 45 0c             	mov    0xc(%ebp),%eax
 804932f:	8b 00                	mov    (%eax),%eax
 8049331:	89 c2                	mov    %eax,%edx
 8049333:	83 ca 02             	or     $0x2,%edx
 8049336:	8b 45 0c             	mov    0xc(%ebp),%eax
 8049339:	89 10                	mov    %edx,(%eax)
          break;
 804933b:	eb 57                	jmp    8049394 <parse_conversion+0xa6>
        case ' ':
          c->flags |= SPACE;
 804933d:	8b 45 0c             	mov    0xc(%ebp),%eax
 8049340:	8b 00                	mov    (%eax),%eax
 8049342:	89 c2                	mov    %eax,%edx
 8049344:	83 ca 04             	or     $0x4,%edx
 8049347:	8b 45 0c             	mov    0xc(%ebp),%eax
 804934a:	89 10                	mov    %edx,(%eax)
          break;
 804934c:	eb 46                	jmp    8049394 <parse_conversion+0xa6>
        case '#':
          c->flags |= POUND;
 804934e:	8b 45 0c             	mov    0xc(%ebp),%eax
 8049351:	8b 00                	mov    (%eax),%eax
 8049353:	89 c2                	mov    %eax,%edx
 8049355:	83 ca 08             	or     $0x8,%edx
 8049358:	8b 45 0c             	mov    0xc(%ebp),%eax
 804935b:	89 10                	mov    %edx,(%eax)
          break;
 804935d:	eb 35                	jmp    8049394 <parse_conversion+0xa6>
        case '0':
          c->flags |= ZERO;
 804935f:	8b 45 0c             	mov    0xc(%ebp),%eax
 8049362:	8b 00                	mov    (%eax),%eax
 8049364:	89 c2                	mov    %eax,%edx
 8049366:	83 ca 10             	or     $0x10,%edx
 8049369:	8b 45 0c             	mov    0xc(%ebp),%eax
 804936c:	89 10                	mov    %edx,(%eax)
          break;
 804936e:	eb 24                	jmp    8049394 <parse_conversion+0xa6>
        case '\'':
          c->flags |= GROUP;
 8049370:	8b 45 0c             	mov    0xc(%ebp),%eax
 8049373:	8b 00                	mov    (%eax),%eax
 8049375:	89 c2                	mov    %eax,%edx
 8049377:	83 ca 20             	or     $0x20,%edx
 804937a:	8b 45 0c             	mov    0xc(%ebp),%eax
 804937d:	89 10                	mov    %edx,(%eax)
          break;
 804937f:	eb 13                	jmp    8049394 <parse_conversion+0xa6>
        default:
          format--;
 8049381:	83 6d 08 01          	subl   $0x1,0x8(%ebp)
          goto not_a_flag;
 8049385:	90                   	nop
        }
    }
 not_a_flag:
  if (c->flags & MINUS)
 8049386:	8b 45 0c             	mov    0xc(%ebp),%eax
 8049389:	8b 00                	mov    (%eax),%eax
 804938b:	83 e0 01             	and    $0x1,%eax
 804938e:	84 c0                	test   %al,%al
 8049390:	74 16                	je     80493a8 <parse_conversion+0xba>
 8049392:	eb 05                	jmp    8049399 <parse_conversion+0xab>
          break;
        default:
          format--;
          goto not_a_flag;
        }
    }
 8049394:	e9 64 ff ff ff       	jmp    80492fd <parse_conversion+0xf>
 not_a_flag:
  if (c->flags & MINUS)
    c->flags &= ~ZERO;
 8049399:	8b 45 0c             	mov    0xc(%ebp),%eax
 804939c:	8b 00                	mov    (%eax),%eax
 804939e:	89 c2                	mov    %eax,%edx
 80493a0:	83 e2 ef             	and    $0xffffffef,%edx
 80493a3:	8b 45 0c             	mov    0xc(%ebp),%eax
 80493a6:	89 10                	mov    %edx,(%eax)
  if (c->flags & PLUS)
 80493a8:	8b 45 0c             	mov    0xc(%ebp),%eax
 80493ab:	8b 00                	mov    (%eax),%eax
 80493ad:	83 e0 02             	and    $0x2,%eax
 80493b0:	85 c0                	test   %eax,%eax
 80493b2:	74 0f                	je     80493c3 <parse_conversion+0xd5>
    c->flags &= ~SPACE;
 80493b4:	8b 45 0c             	mov    0xc(%ebp),%eax
 80493b7:	8b 00                	mov    (%eax),%eax
 80493b9:	89 c2                	mov    %eax,%edx
 80493bb:	83 e2 fb             	and    $0xfffffffb,%edx
 80493be:	8b 45 0c             	mov    0xc(%ebp),%eax
 80493c1:	89 10                	mov    %edx,(%eax)

  /* Parse field width. */
  c->width = 0;
 80493c3:	8b 45 0c             	mov    0xc(%ebp),%eax
 80493c6:	c7 40 04 00 00 00 00 	movl   $0x0,0x4(%eax)
  if (*format == '*')
 80493cd:	8b 45 08             	mov    0x8(%ebp),%eax
 80493d0:	0f b6 00             	movzbl (%eax),%eax
 80493d3:	3c 2a                	cmp    $0x2a,%al
 80493d5:	75 47                	jne    804941e <parse_conversion+0x130>
    {
      format++;
 80493d7:	83 45 08 01          	addl   $0x1,0x8(%ebp)
      c->width = va_arg (*args, int);
 80493db:	8b 45 10             	mov    0x10(%ebp),%eax
 80493de:	8b 00                	mov    (%eax),%eax
 80493e0:	8d 48 04             	lea    0x4(%eax),%ecx
 80493e3:	8b 55 10             	mov    0x10(%ebp),%edx
 80493e6:	89 0a                	mov    %ecx,(%edx)
 80493e8:	8b 10                	mov    (%eax),%edx
 80493ea:	8b 45 0c             	mov    0xc(%ebp),%eax
 80493ed:	89 50 04             	mov    %edx,0x4(%eax)
 80493f0:	eb 42                	jmp    8049434 <parse_conversion+0x146>
    }
  else 
    {
      for (; isdigit (*format); format++)
        c->width = c->width * 10 + *format - '0';
 80493f2:	8b 45 0c             	mov    0xc(%ebp),%eax
 80493f5:	8b 50 04             	mov    0x4(%eax),%edx
 80493f8:	89 d0                	mov    %edx,%eax
 80493fa:	c1 e0 02             	shl    $0x2,%eax
 80493fd:	01 d0                	add    %edx,%eax
 80493ff:	01 c0                	add    %eax,%eax
 8049401:	89 c2                	mov    %eax,%edx
 8049403:	8b 45 08             	mov    0x8(%ebp),%eax
 8049406:	0f b6 00             	movzbl (%eax),%eax
 8049409:	0f be c0             	movsbl %al,%eax
 804940c:	8d 04 02             	lea    (%edx,%eax,1),%eax
 804940f:	8d 50 d0             	lea    -0x30(%eax),%edx
 8049412:	8b 45 0c             	mov    0xc(%ebp),%eax
 8049415:	89 50 04             	mov    %edx,0x4(%eax)
      format++;
      c->width = va_arg (*args, int);
    }
  else 
    {
      for (; isdigit (*format); format++)
 8049418:	83 45 08 01          	addl   $0x1,0x8(%ebp)
 804941c:	eb 01                	jmp    804941f <parse_conversion+0x131>
 804941e:	90                   	nop
 804941f:	8b 45 08             	mov    0x8(%ebp),%eax
 8049422:	0f b6 00             	movzbl (%eax),%eax
 8049425:	0f be c0             	movsbl %al,%eax
 8049428:	89 04 24             	mov    %eax,(%esp)
 804942b:	e8 58 f8 ff ff       	call   8048c88 <isdigit>
 8049430:	85 c0                	test   %eax,%eax
 8049432:	75 be                	jne    80493f2 <parse_conversion+0x104>
        c->width = c->width * 10 + *format - '0';
    }
  if (c->width < 0) 
 8049434:	8b 45 0c             	mov    0xc(%ebp),%eax
 8049437:	8b 40 04             	mov    0x4(%eax),%eax
 804943a:	85 c0                	test   %eax,%eax
 804943c:	79 1f                	jns    804945d <parse_conversion+0x16f>
    {
      c->width = -c->width;
 804943e:	8b 45 0c             	mov    0xc(%ebp),%eax
 8049441:	8b 40 04             	mov    0x4(%eax),%eax
 8049444:	89 c2                	mov    %eax,%edx
 8049446:	f7 da                	neg    %edx
 8049448:	8b 45 0c             	mov    0xc(%ebp),%eax
 804944b:	89 50 04             	mov    %edx,0x4(%eax)
      c->flags |= MINUS;
 804944e:	8b 45 0c             	mov    0xc(%ebp),%eax
 8049451:	8b 00                	mov    (%eax),%eax
 8049453:	89 c2                	mov    %eax,%edx
 8049455:	83 ca 01             	or     $0x1,%edx
 8049458:	8b 45 0c             	mov    0xc(%ebp),%eax
 804945b:	89 10                	mov    %edx,(%eax)
    }
      
  /* Parse precision. */
  c->precision = -1;
 804945d:	8b 45 0c             	mov    0xc(%ebp),%eax
 8049460:	c7 40 08 ff ff ff ff 	movl   $0xffffffff,0x8(%eax)
  if (*format == '.') 
 8049467:	8b 45 08             	mov    0x8(%ebp),%eax
 804946a:	0f b6 00             	movzbl (%eax),%eax
 804946d:	3c 2e                	cmp    $0x2e,%al
 804946f:	0f 85 88 00 00 00    	jne    80494fd <parse_conversion+0x20f>
    {
      format++;
 8049475:	83 45 08 01          	addl   $0x1,0x8(%ebp)
      if (*format == '*') 
 8049479:	8b 45 08             	mov    0x8(%ebp),%eax
 804947c:	0f b6 00             	movzbl (%eax),%eax
 804947f:	3c 2a                	cmp    $0x2a,%al
 8049481:	75 1b                	jne    804949e <parse_conversion+0x1b0>
        {
          format++;
 8049483:	83 45 08 01          	addl   $0x1,0x8(%ebp)
          c->precision = va_arg (*args, int);
 8049487:	8b 45 10             	mov    0x10(%ebp),%eax
 804948a:	8b 00                	mov    (%eax),%eax
 804948c:	8d 48 04             	lea    0x4(%eax),%ecx
 804948f:	8b 55 10             	mov    0x10(%ebp),%edx
 8049492:	89 0a                	mov    %ecx,(%edx)
 8049494:	8b 10                	mov    (%eax),%edx
 8049496:	8b 45 0c             	mov    0xc(%ebp),%eax
 8049499:	89 50 08             	mov    %edx,0x8(%eax)
 804949c:	eb 4b                	jmp    80494e9 <parse_conversion+0x1fb>
        }
      else 
        {
          c->precision = 0;
 804949e:	8b 45 0c             	mov    0xc(%ebp),%eax
 80494a1:	c7 40 08 00 00 00 00 	movl   $0x0,0x8(%eax)
          for (; isdigit (*format); format++)
 80494a8:	eb 2a                	jmp    80494d4 <parse_conversion+0x1e6>
            c->precision = c->precision * 10 + *format - '0';
 80494aa:	8b 45 0c             	mov    0xc(%ebp),%eax
 80494ad:	8b 50 08             	mov    0x8(%eax),%edx
 80494b0:	89 d0                	mov    %edx,%eax
 80494b2:	c1 e0 02             	shl    $0x2,%eax
 80494b5:	01 d0                	add    %edx,%eax
 80494b7:	01 c0                	add    %eax,%eax
 80494b9:	89 c2                	mov    %eax,%edx
 80494bb:	8b 45 08             	mov    0x8(%ebp),%eax
 80494be:	0f b6 00             	movzbl (%eax),%eax
 80494c1:	0f be c0             	movsbl %al,%eax
 80494c4:	8d 04 02             	lea    (%edx,%eax,1),%eax
 80494c7:	8d 50 d0             	lea    -0x30(%eax),%edx
 80494ca:	8b 45 0c             	mov    0xc(%ebp),%eax
 80494cd:	89 50 08             	mov    %edx,0x8(%eax)
          c->precision = va_arg (*args, int);
        }
      else 
        {
          c->precision = 0;
          for (; isdigit (*format); format++)
 80494d0:	83 45 08 01          	addl   $0x1,0x8(%ebp)
 80494d4:	8b 45 08             	mov    0x8(%ebp),%eax
 80494d7:	0f b6 00             	movzbl (%eax),%eax
 80494da:	0f be c0             	movsbl %al,%eax
 80494dd:	89 04 24             	mov    %eax,(%esp)
 80494e0:	e8 a3 f7 ff ff       	call   8048c88 <isdigit>
 80494e5:	85 c0                	test   %eax,%eax
 80494e7:	75 c1                	jne    80494aa <parse_conversion+0x1bc>
            c->precision = c->precision * 10 + *format - '0';
        }
      if (c->precision < 0) 
 80494e9:	8b 45 0c             	mov    0xc(%ebp),%eax
 80494ec:	8b 40 08             	mov    0x8(%eax),%eax
 80494ef:	85 c0                	test   %eax,%eax
 80494f1:	79 0a                	jns    80494fd <parse_conversion+0x20f>
        c->precision = -1;
 80494f3:	8b 45 0c             	mov    0xc(%ebp),%eax
 80494f6:	c7 40 08 ff ff ff ff 	movl   $0xffffffff,0x8(%eax)
    }
  if (c->precision >= 0)
 80494fd:	8b 45 0c             	mov    0xc(%ebp),%eax
 8049500:	8b 40 08             	mov    0x8(%eax),%eax
 8049503:	85 c0                	test   %eax,%eax
 8049505:	78 0f                	js     8049516 <parse_conversion+0x228>
    c->flags &= ~ZERO;
 8049507:	8b 45 0c             	mov    0xc(%ebp),%eax
 804950a:	8b 00                	mov    (%eax),%eax
 804950c:	89 c2                	mov    %eax,%edx
 804950e:	83 e2 ef             	and    $0xffffffef,%edx
 8049511:	8b 45 0c             	mov    0xc(%ebp),%eax
 8049514:	89 10                	mov    %edx,(%eax)

  /* Parse type. */
  c->type = INT;
 8049516:	8b 45 0c             	mov    0xc(%ebp),%eax
 8049519:	c7 40 0c 03 00 00 00 	movl   $0x3,0xc(%eax)
  switch (*format++) 
 8049520:	8b 45 08             	mov    0x8(%ebp),%eax
 8049523:	0f b6 00             	movzbl (%eax),%eax
 8049526:	0f be c0             	movsbl %al,%eax
 8049529:	83 45 08 01          	addl   $0x1,0x8(%ebp)
 804952d:	83 e8 68             	sub    $0x68,%eax
 8049530:	83 f8 12             	cmp    $0x12,%eax
 8049533:	77 79                	ja     80495ae <parse_conversion+0x2c0>
 8049535:	8b 04 85 44 b3 04 08 	mov    0x804b344(,%eax,4),%eax
 804953c:	ff e0                	jmp    *%eax
    {
    case 'h':
      if (*format == 'h') 
 804953e:	8b 45 08             	mov    0x8(%ebp),%eax
 8049541:	0f b6 00             	movzbl (%eax),%eax
 8049544:	3c 68                	cmp    $0x68,%al
 8049546:	75 10                	jne    8049558 <parse_conversion+0x26a>
        {
          format++;
 8049548:	83 45 08 01          	addl   $0x1,0x8(%ebp)
          c->type = CHAR;
 804954c:	8b 45 0c             	mov    0xc(%ebp),%eax
 804954f:	c7 40 0c 01 00 00 00 	movl   $0x1,0xc(%eax)
        }
      else
        c->type = SHORT;
      break;
 8049556:	eb 5a                	jmp    80495b2 <parse_conversion+0x2c4>
        {
          format++;
          c->type = CHAR;
        }
      else
        c->type = SHORT;
 8049558:	8b 45 0c             	mov    0xc(%ebp),%eax
 804955b:	c7 40 0c 02 00 00 00 	movl   $0x2,0xc(%eax)
      break;
 8049562:	eb 4e                	jmp    80495b2 <parse_conversion+0x2c4>
      
    case 'j':
      c->type = INTMAX;
 8049564:	8b 45 0c             	mov    0xc(%ebp),%eax
 8049567:	c7 40 0c 04 00 00 00 	movl   $0x4,0xc(%eax)
      break;
 804956e:	eb 42                	jmp    80495b2 <parse_conversion+0x2c4>

    case 'l':
      if (*format == 'l')
 8049570:	8b 45 08             	mov    0x8(%ebp),%eax
 8049573:	0f b6 00             	movzbl (%eax),%eax
 8049576:	3c 6c                	cmp    $0x6c,%al
 8049578:	75 10                	jne    804958a <parse_conversion+0x29c>
        {
          format++;
 804957a:	83 45 08 01          	addl   $0x1,0x8(%ebp)
          c->type = LONGLONG;
 804957e:	8b 45 0c             	mov    0xc(%ebp),%eax
 8049581:	c7 40 0c 06 00 00 00 	movl   $0x6,0xc(%eax)
        }
      else
        c->type = LONG;
      break;
 8049588:	eb 28                	jmp    80495b2 <parse_conversion+0x2c4>
        {
          format++;
          c->type = LONGLONG;
        }
      else
        c->type = LONG;
 804958a:	8b 45 0c             	mov    0xc(%ebp),%eax
 804958d:	c7 40 0c 05 00 00 00 	movl   $0x5,0xc(%eax)
      break;
 8049594:	eb 1c                	jmp    80495b2 <parse_conversion+0x2c4>

    case 't':
      c->type = PTRDIFFT;
 8049596:	8b 45 0c             	mov    0xc(%ebp),%eax
 8049599:	c7 40 0c 07 00 00 00 	movl   $0x7,0xc(%eax)
      break;
 80495a0:	eb 10                	jmp    80495b2 <parse_conversion+0x2c4>

    case 'z':
      c->type = SIZET;
 80495a2:	8b 45 0c             	mov    0xc(%ebp),%eax
 80495a5:	c7 40 0c 08 00 00 00 	movl   $0x8,0xc(%eax)
      break;
 80495ac:	eb 04                	jmp    80495b2 <parse_conversion+0x2c4>

    default:
      format--;
 80495ae:	83 6d 08 01          	subl   $0x1,0x8(%ebp)
      break;
    }

  return format;
 80495b2:	8b 45 08             	mov    0x8(%ebp),%eax
}
 80495b5:	c9                   	leave  
 80495b6:	c3                   	ret    

080495b7 <format_integer>:
static void
format_integer (uintmax_t value, bool is_signed, bool negative, 
                const struct integer_base *b,
                const struct printf_conversion *c,
                void (*output) (char, void *), void *aux)
{
 80495b7:	55                   	push   %ebp
 80495b8:	89 e5                	mov    %esp,%ebp
 80495ba:	56                   	push   %esi
 80495bb:	53                   	push   %ebx
 80495bc:	83 c4 80             	add    $0xffffff80,%esp
 80495bf:	8b 55 10             	mov    0x10(%ebp),%edx
 80495c2:	8b 45 14             	mov    0x14(%ebp),%eax
 80495c5:	8b 4d 08             	mov    0x8(%ebp),%ecx
 80495c8:	89 4d 90             	mov    %ecx,-0x70(%ebp)
 80495cb:	8b 4d 0c             	mov    0xc(%ebp),%ecx
 80495ce:	89 4d 94             	mov    %ecx,-0x6c(%ebp)
 80495d1:	88 55 8c             	mov    %dl,-0x74(%ebp)
 80495d4:	88 45 88             	mov    %al,-0x78(%ebp)
  int digit_cnt;                /* # of digits output so far. */

  /* Determine sign character, if any.
     An unsigned conversion will never have a sign character,
     even if one of the flags requests one. */
  sign = 0;
 80495d7:	c7 45 e8 00 00 00 00 	movl   $0x0,-0x18(%ebp)
  if (is_signed) 
 80495de:	80 7d 8c 00          	cmpb   $0x0,-0x74(%ebp)
 80495e2:	74 53                	je     8049637 <format_integer+0x80>
    {
      if (c->flags & PLUS)
 80495e4:	8b 45 1c             	mov    0x1c(%ebp),%eax
 80495e7:	8b 00                	mov    (%eax),%eax
 80495e9:	83 e0 02             	and    $0x2,%eax
 80495ec:	85 c0                	test   %eax,%eax
 80495ee:	74 17                	je     8049607 <format_integer+0x50>
        sign = negative ? '-' : '+';
 80495f0:	80 7d 88 00          	cmpb   $0x0,-0x78(%ebp)
 80495f4:	74 07                	je     80495fd <format_integer+0x46>
 80495f6:	b8 2d 00 00 00       	mov    $0x2d,%eax
 80495fb:	eb 05                	jmp    8049602 <format_integer+0x4b>
 80495fd:	b8 2b 00 00 00       	mov    $0x2b,%eax
 8049602:	89 45 e8             	mov    %eax,-0x18(%ebp)
 8049605:	eb 30                	jmp    8049637 <format_integer+0x80>
      else if (c->flags & SPACE)
 8049607:	8b 45 1c             	mov    0x1c(%ebp),%eax
 804960a:	8b 00                	mov    (%eax),%eax
 804960c:	83 e0 04             	and    $0x4,%eax
 804960f:	85 c0                	test   %eax,%eax
 8049611:	74 17                	je     804962a <format_integer+0x73>
        sign = negative ? '-' : ' ';
 8049613:	80 7d 88 00          	cmpb   $0x0,-0x78(%ebp)
 8049617:	74 07                	je     8049620 <format_integer+0x69>
 8049619:	b8 2d 00 00 00       	mov    $0x2d,%eax
 804961e:	eb 05                	jmp    8049625 <format_integer+0x6e>
 8049620:	b8 20 00 00 00       	mov    $0x20,%eax
 8049625:	89 45 e8             	mov    %eax,-0x18(%ebp)
 8049628:	eb 0d                	jmp    8049637 <format_integer+0x80>
      else if (negative)
 804962a:	80 7d 88 00          	cmpb   $0x0,-0x78(%ebp)
 804962e:	74 07                	je     8049637 <format_integer+0x80>
        sign = '-';
 8049630:	c7 45 e8 2d 00 00 00 	movl   $0x2d,-0x18(%ebp)
    }

  /* Determine whether to include `0x' or `0X'.
     It will only be included with a hexadecimal conversion of a
     nonzero value with the # flag. */
  x = (c->flags & POUND) && value ? b->x : 0;
 8049637:	8b 45 1c             	mov    0x1c(%ebp),%eax
 804963a:	8b 00                	mov    (%eax),%eax
 804963c:	83 e0 08             	and    $0x8,%eax
 804963f:	85 c0                	test   %eax,%eax
 8049641:	74 14                	je     8049657 <format_integer+0xa0>
 8049643:	8b 45 90             	mov    -0x70(%ebp),%eax
 8049646:	8b 55 94             	mov    -0x6c(%ebp),%edx
 8049649:	09 d0                	or     %edx,%eax
 804964b:	85 c0                	test   %eax,%eax
 804964d:	74 08                	je     8049657 <format_integer+0xa0>
 804964f:	8b 45 18             	mov    0x18(%ebp),%eax
 8049652:	8b 40 08             	mov    0x8(%eax),%eax
 8049655:	eb 05                	jmp    804965c <format_integer+0xa5>
 8049657:	b8 00 00 00 00       	mov    $0x0,%eax
 804965c:	89 45 e4             	mov    %eax,-0x1c(%ebp)

  /* Accumulate digits into buffer.
     This algorithm produces digits in reverse order, so later we
     will output the buffer's content in reverse. */
  cp = buf;
 804965f:	8d 45 a0             	lea    -0x60(%ebp),%eax
 8049662:	89 45 e0             	mov    %eax,-0x20(%ebp)
  digit_cnt = 0;
 8049665:	c7 45 f4 00 00 00 00 	movl   $0x0,-0xc(%ebp)
  while (value > 0) 
 804966c:	e9 9b 00 00 00       	jmp    804970c <format_integer+0x155>
    {
      if ((c->flags & GROUP) && digit_cnt > 0 && digit_cnt % b->group == 0)
 8049671:	8b 45 1c             	mov    0x1c(%ebp),%eax
 8049674:	8b 00                	mov    (%eax),%eax
 8049676:	83 e0 20             	and    $0x20,%eax
 8049679:	85 c0                	test   %eax,%eax
 804967b:	74 26                	je     80496a3 <format_integer+0xec>
 804967d:	83 7d f4 00          	cmpl   $0x0,-0xc(%ebp)
 8049681:	7e 20                	jle    80496a3 <format_integer+0xec>
 8049683:	8b 45 18             	mov    0x18(%ebp),%eax
 8049686:	8b 48 0c             	mov    0xc(%eax),%ecx
 8049689:	8b 45 f4             	mov    -0xc(%ebp),%eax
 804968c:	89 c2                	mov    %eax,%edx
 804968e:	c1 fa 1f             	sar    $0x1f,%edx
 8049691:	f7 f9                	idiv   %ecx
 8049693:	89 d0                	mov    %edx,%eax
 8049695:	85 c0                	test   %eax,%eax
 8049697:	75 0a                	jne    80496a3 <format_integer+0xec>
        *cp++ = ',';
 8049699:	8b 45 e0             	mov    -0x20(%ebp),%eax
 804969c:	c6 00 2c             	movb   $0x2c,(%eax)
 804969f:	83 45 e0 01          	addl   $0x1,-0x20(%ebp)
      *cp++ = b->digits[value % b->base];
 80496a3:	8b 45 18             	mov    0x18(%ebp),%eax
 80496a6:	8b 70 04             	mov    0x4(%eax),%esi
 80496a9:	8b 45 18             	mov    0x18(%ebp),%eax
 80496ac:	8b 00                	mov    (%eax),%eax
 80496ae:	89 c1                	mov    %eax,%ecx
 80496b0:	89 c3                	mov    %eax,%ebx
 80496b2:	c1 fb 1f             	sar    $0x1f,%ebx
 80496b5:	8b 45 90             	mov    -0x70(%ebp),%eax
 80496b8:	8b 55 94             	mov    -0x6c(%ebp),%edx
 80496bb:	89 4c 24 08          	mov    %ecx,0x8(%esp)
 80496bf:	89 5c 24 0c          	mov    %ebx,0xc(%esp)
 80496c3:	89 04 24             	mov    %eax,(%esp)
 80496c6:	89 54 24 04          	mov    %edx,0x4(%esp)
 80496ca:	e8 25 13 00 00       	call   804a9f4 <__umoddi3>
 80496cf:	8d 04 06             	lea    (%esi,%eax,1),%eax
 80496d2:	0f b6 10             	movzbl (%eax),%edx
 80496d5:	8b 45 e0             	mov    -0x20(%ebp),%eax
 80496d8:	88 10                	mov    %dl,(%eax)
 80496da:	83 45 e0 01          	addl   $0x1,-0x20(%ebp)
      value /= b->base;
 80496de:	8b 45 18             	mov    0x18(%ebp),%eax
 80496e1:	8b 00                	mov    (%eax),%eax
 80496e3:	89 c2                	mov    %eax,%edx
 80496e5:	c1 fa 1f             	sar    $0x1f,%edx
 80496e8:	89 44 24 08          	mov    %eax,0x8(%esp)
 80496ec:	89 54 24 0c          	mov    %edx,0xc(%esp)
 80496f0:	8b 45 90             	mov    -0x70(%ebp),%eax
 80496f3:	8b 55 94             	mov    -0x6c(%ebp),%edx
 80496f6:	89 04 24             	mov    %eax,(%esp)
 80496f9:	89 54 24 04          	mov    %edx,0x4(%esp)
 80496fd:	e8 b2 12 00 00       	call   804a9b4 <__udivdi3>
 8049702:	89 45 90             	mov    %eax,-0x70(%ebp)
 8049705:	89 55 94             	mov    %edx,-0x6c(%ebp)
      digit_cnt++;
 8049708:	83 45 f4 01          	addl   $0x1,-0xc(%ebp)
  /* Accumulate digits into buffer.
     This algorithm produces digits in reverse order, so later we
     will output the buffer's content in reverse. */
  cp = buf;
  digit_cnt = 0;
  while (value > 0) 
 804970c:	8b 45 90             	mov    -0x70(%ebp),%eax
 804970f:	8b 55 94             	mov    -0x6c(%ebp),%edx
 8049712:	09 d0                	or     %edx,%eax
 8049714:	85 c0                	test   %eax,%eax
 8049716:	0f 85 55 ff ff ff    	jne    8049671 <format_integer+0xba>
  /* Append enough zeros to match precision.
     If requested precision is 0, then a value of zero is
     rendered as a null string, otherwise as "0".
     If the # flag is used with base 8, the result must always
     begin with a zero. */
  precision = c->precision < 0 ? 1 : c->precision;
 804971c:	8b 45 1c             	mov    0x1c(%ebp),%eax
 804971f:	8b 40 08             	mov    0x8(%eax),%eax
 8049722:	85 c0                	test   %eax,%eax
 8049724:	78 08                	js     804972e <format_integer+0x177>
 8049726:	8b 45 1c             	mov    0x1c(%ebp),%eax
 8049729:	8b 40 08             	mov    0x8(%eax),%eax
 804972c:	eb 05                	jmp    8049733 <format_integer+0x17c>
 804972e:	b8 01 00 00 00       	mov    $0x1,%eax
 8049733:	89 45 ec             	mov    %eax,-0x14(%ebp)
  while (cp - buf < precision && cp < buf + sizeof buf - 1)
 8049736:	eb 0a                	jmp    8049742 <format_integer+0x18b>
    *cp++ = '0';
 8049738:	8b 45 e0             	mov    -0x20(%ebp),%eax
 804973b:	c6 00 30             	movb   $0x30,(%eax)
 804973e:	83 45 e0 01          	addl   $0x1,-0x20(%ebp)
     If requested precision is 0, then a value of zero is
     rendered as a null string, otherwise as "0".
     If the # flag is used with base 8, the result must always
     begin with a zero. */
  precision = c->precision < 0 ? 1 : c->precision;
  while (cp - buf < precision && cp < buf + sizeof buf - 1)
 8049742:	8b 55 e0             	mov    -0x20(%ebp),%edx
 8049745:	8d 45 a0             	lea    -0x60(%ebp),%eax
 8049748:	89 d1                	mov    %edx,%ecx
 804974a:	29 c1                	sub    %eax,%ecx
 804974c:	89 c8                	mov    %ecx,%eax
 804974e:	3b 45 ec             	cmp    -0x14(%ebp),%eax
 8049751:	7d 0b                	jge    804975e <format_integer+0x1a7>
 8049753:	8d 45 a0             	lea    -0x60(%ebp),%eax
 8049756:	83 c0 3f             	add    $0x3f,%eax
 8049759:	39 45 e0             	cmp    %eax,-0x20(%ebp)
 804975c:	72 da                	jb     8049738 <format_integer+0x181>
    *cp++ = '0';
  if ((c->flags & POUND) && b->base == 8 && (cp == buf || cp[-1] != '0'))
 804975e:	8b 45 1c             	mov    0x1c(%ebp),%eax
 8049761:	8b 00                	mov    (%eax),%eax
 8049763:	83 e0 08             	and    $0x8,%eax
 8049766:	85 c0                	test   %eax,%eax
 8049768:	74 29                	je     8049793 <format_integer+0x1dc>
 804976a:	8b 45 18             	mov    0x18(%ebp),%eax
 804976d:	8b 00                	mov    (%eax),%eax
 804976f:	83 f8 08             	cmp    $0x8,%eax
 8049772:	75 1f                	jne    8049793 <format_integer+0x1dc>
 8049774:	8d 45 a0             	lea    -0x60(%ebp),%eax
 8049777:	39 45 e0             	cmp    %eax,-0x20(%ebp)
 804977a:	74 0d                	je     8049789 <format_integer+0x1d2>
 804977c:	8b 45 e0             	mov    -0x20(%ebp),%eax
 804977f:	83 e8 01             	sub    $0x1,%eax
 8049782:	0f b6 00             	movzbl (%eax),%eax
 8049785:	3c 30                	cmp    $0x30,%al
 8049787:	74 0a                	je     8049793 <format_integer+0x1dc>
    *cp++ = '0';
 8049789:	8b 45 e0             	mov    -0x20(%ebp),%eax
 804978c:	c6 00 30             	movb   $0x30,(%eax)
 804978f:	83 45 e0 01          	addl   $0x1,-0x20(%ebp)

  /* Calculate number of pad characters to fill field width. */
  pad_cnt = c->width - (cp - buf) - (x ? 2 : 0) - (sign != 0);
 8049793:	8b 45 1c             	mov    0x1c(%ebp),%eax
 8049796:	8b 40 04             	mov    0x4(%eax),%eax
 8049799:	8d 4d a0             	lea    -0x60(%ebp),%ecx
 804979c:	8b 55 e0             	mov    -0x20(%ebp),%edx
 804979f:	89 cb                	mov    %ecx,%ebx
 80497a1:	29 d3                	sub    %edx,%ebx
 80497a3:	89 da                	mov    %ebx,%edx
 80497a5:	8d 14 10             	lea    (%eax,%edx,1),%edx
 80497a8:	83 7d e4 00          	cmpl   $0x0,-0x1c(%ebp)
 80497ac:	74 07                	je     80497b5 <format_integer+0x1fe>
 80497ae:	b8 02 00 00 00       	mov    $0x2,%eax
 80497b3:	eb 05                	jmp    80497ba <format_integer+0x203>
 80497b5:	b8 00 00 00 00       	mov    $0x0,%eax
 80497ba:	29 c2                	sub    %eax,%edx
 80497bc:	83 7d e8 00          	cmpl   $0x0,-0x18(%ebp)
 80497c0:	0f 95 c0             	setne  %al
 80497c3:	0f b6 c0             	movzbl %al,%eax
 80497c6:	89 d1                	mov    %edx,%ecx
 80497c8:	29 c1                	sub    %eax,%ecx
 80497ca:	89 c8                	mov    %ecx,%eax
 80497cc:	89 45 f0             	mov    %eax,-0x10(%ebp)
  if (pad_cnt < 0)
 80497cf:	83 7d f0 00          	cmpl   $0x0,-0x10(%ebp)
 80497d3:	79 07                	jns    80497dc <format_integer+0x225>
    pad_cnt = 0;
 80497d5:	c7 45 f0 00 00 00 00 	movl   $0x0,-0x10(%ebp)

  /* Do output. */
  if ((c->flags & (MINUS | ZERO)) == 0)
 80497dc:	8b 45 1c             	mov    0x1c(%ebp),%eax
 80497df:	8b 00                	mov    (%eax),%eax
 80497e1:	83 e0 11             	and    $0x11,%eax
 80497e4:	85 c0                	test   %eax,%eax
 80497e6:	75 21                	jne    8049809 <format_integer+0x252>
    output_dup (' ', pad_cnt, output, aux);
 80497e8:	8b 45 f0             	mov    -0x10(%ebp),%eax
 80497eb:	8b 55 24             	mov    0x24(%ebp),%edx
 80497ee:	89 54 24 0c          	mov    %edx,0xc(%esp)
 80497f2:	8b 55 20             	mov    0x20(%ebp),%edx
 80497f5:	89 54 24 08          	mov    %edx,0x8(%esp)
 80497f9:	89 44 24 04          	mov    %eax,0x4(%esp)
 80497fd:	c7 04 24 20 00 00 00 	movl   $0x20,(%esp)
 8049804:	e8 d0 00 00 00       	call   80498d9 <output_dup>
  if (sign)
 8049809:	83 7d e8 00          	cmpl   $0x0,-0x18(%ebp)
 804980d:	74 15                	je     8049824 <format_integer+0x26d>
    output (sign, aux);
 804980f:	8b 45 e8             	mov    -0x18(%ebp),%eax
 8049812:	0f be c0             	movsbl %al,%eax
 8049815:	8b 55 24             	mov    0x24(%ebp),%edx
 8049818:	89 54 24 04          	mov    %edx,0x4(%esp)
 804981c:	89 04 24             	mov    %eax,(%esp)
 804981f:	8b 45 20             	mov    0x20(%ebp),%eax
 8049822:	ff d0                	call   *%eax
  if (x) 
 8049824:	83 7d e4 00          	cmpl   $0x0,-0x1c(%ebp)
 8049828:	74 28                	je     8049852 <format_integer+0x29b>
    {
      output ('0', aux);
 804982a:	8b 45 24             	mov    0x24(%ebp),%eax
 804982d:	89 44 24 04          	mov    %eax,0x4(%esp)
 8049831:	c7 04 24 30 00 00 00 	movl   $0x30,(%esp)
 8049838:	8b 45 20             	mov    0x20(%ebp),%eax
 804983b:	ff d0                	call   *%eax
      output (x, aux); 
 804983d:	8b 45 e4             	mov    -0x1c(%ebp),%eax
 8049840:	0f be c0             	movsbl %al,%eax
 8049843:	8b 55 24             	mov    0x24(%ebp),%edx
 8049846:	89 54 24 04          	mov    %edx,0x4(%esp)
 804984a:	89 04 24             	mov    %eax,(%esp)
 804984d:	8b 45 20             	mov    0x20(%ebp),%eax
 8049850:	ff d0                	call   *%eax
    }
  if (c->flags & ZERO)
 8049852:	8b 45 1c             	mov    0x1c(%ebp),%eax
 8049855:	8b 00                	mov    (%eax),%eax
 8049857:	83 e0 10             	and    $0x10,%eax
 804985a:	85 c0                	test   %eax,%eax
 804985c:	74 3f                	je     804989d <format_integer+0x2e6>
    output_dup ('0', pad_cnt, output, aux);
 804985e:	8b 45 f0             	mov    -0x10(%ebp),%eax
 8049861:	8b 55 24             	mov    0x24(%ebp),%edx
 8049864:	89 54 24 0c          	mov    %edx,0xc(%esp)
 8049868:	8b 55 20             	mov    0x20(%ebp),%edx
 804986b:	89 54 24 08          	mov    %edx,0x8(%esp)
 804986f:	89 44 24 04          	mov    %eax,0x4(%esp)
 8049873:	c7 04 24 30 00 00 00 	movl   $0x30,(%esp)
 804987a:	e8 5a 00 00 00       	call   80498d9 <output_dup>
  while (cp > buf)
 804987f:	eb 1c                	jmp    804989d <format_integer+0x2e6>
    output (*--cp, aux);
 8049881:	83 6d e0 01          	subl   $0x1,-0x20(%ebp)
 8049885:	8b 45 e0             	mov    -0x20(%ebp),%eax
 8049888:	0f b6 00             	movzbl (%eax),%eax
 804988b:	0f be c0             	movsbl %al,%eax
 804988e:	8b 55 24             	mov    0x24(%ebp),%edx
 8049891:	89 54 24 04          	mov    %edx,0x4(%esp)
 8049895:	89 04 24             	mov    %eax,(%esp)
 8049898:	8b 45 20             	mov    0x20(%ebp),%eax
 804989b:	ff d0                	call   *%eax
      output ('0', aux);
      output (x, aux); 
    }
  if (c->flags & ZERO)
    output_dup ('0', pad_cnt, output, aux);
  while (cp > buf)
 804989d:	8d 45 a0             	lea    -0x60(%ebp),%eax
 80498a0:	39 45 e0             	cmp    %eax,-0x20(%ebp)
 80498a3:	77 dc                	ja     8049881 <format_integer+0x2ca>
    output (*--cp, aux);
  if (c->flags & MINUS)
 80498a5:	8b 45 1c             	mov    0x1c(%ebp),%eax
 80498a8:	8b 00                	mov    (%eax),%eax
 80498aa:	83 e0 01             	and    $0x1,%eax
 80498ad:	84 c0                	test   %al,%al
 80498af:	74 21                	je     80498d2 <format_integer+0x31b>
    output_dup (' ', pad_cnt, output, aux);
 80498b1:	8b 45 f0             	mov    -0x10(%ebp),%eax
 80498b4:	8b 55 24             	mov    0x24(%ebp),%edx
 80498b7:	89 54 24 0c          	mov    %edx,0xc(%esp)
 80498bb:	8b 55 20             	mov    0x20(%ebp),%edx
 80498be:	89 54 24 08          	mov    %edx,0x8(%esp)
 80498c2:	89 44 24 04          	mov    %eax,0x4(%esp)
 80498c6:	c7 04 24 20 00 00 00 	movl   $0x20,(%esp)
 80498cd:	e8 07 00 00 00       	call   80498d9 <output_dup>
}
 80498d2:	83 ec 80             	sub    $0xffffff80,%esp
 80498d5:	5b                   	pop    %ebx
 80498d6:	5e                   	pop    %esi
 80498d7:	5d                   	pop    %ebp
 80498d8:	c3                   	ret    

080498d9 <output_dup>:

/* Writes CH to OUTPUT with auxiliary data AUX, CNT times. */
static void
output_dup (char ch, size_t cnt, void (*output) (char, void *), void *aux) 
{
 80498d9:	55                   	push   %ebp
 80498da:	89 e5                	mov    %esp,%ebp
 80498dc:	83 ec 28             	sub    $0x28,%esp
 80498df:	8b 45 08             	mov    0x8(%ebp),%eax
 80498e2:	88 45 f4             	mov    %al,-0xc(%ebp)
  while (cnt-- > 0)
 80498e5:	eb 13                	jmp    80498fa <output_dup+0x21>
    output (ch, aux);
 80498e7:	0f be 45 f4          	movsbl -0xc(%ebp),%eax
 80498eb:	8b 55 14             	mov    0x14(%ebp),%edx
 80498ee:	89 54 24 04          	mov    %edx,0x4(%esp)
 80498f2:	89 04 24             	mov    %eax,(%esp)
 80498f5:	8b 45 10             	mov    0x10(%ebp),%eax
 80498f8:	ff d0                	call   *%eax

/* Writes CH to OUTPUT with auxiliary data AUX, CNT times. */
static void
output_dup (char ch, size_t cnt, void (*output) (char, void *), void *aux) 
{
  while (cnt-- > 0)
 80498fa:	83 7d 0c 00          	cmpl   $0x0,0xc(%ebp)
 80498fe:	0f 95 c0             	setne  %al
 8049901:	83 6d 0c 01          	subl   $0x1,0xc(%ebp)
 8049905:	84 c0                	test   %al,%al
 8049907:	75 de                	jne    80498e7 <output_dup+0xe>
    output (ch, aux);
}
 8049909:	c9                   	leave  
 804990a:	c3                   	ret    

0804990b <format_string>:
   auxiliary data AUX. */
static void
format_string (const char *string, int length,
               struct printf_conversion *c,
               void (*output) (char, void *), void *aux) 
{
 804990b:	55                   	push   %ebp
 804990c:	89 e5                	mov    %esp,%ebp
 804990e:	83 ec 28             	sub    $0x28,%esp
  int i;
  if (c->width > length && (c->flags & MINUS) == 0)
 8049911:	8b 45 10             	mov    0x10(%ebp),%eax
 8049914:	8b 40 04             	mov    0x4(%eax),%eax
 8049917:	3b 45 0c             	cmp    0xc(%ebp),%eax
 804991a:	7e 33                	jle    804994f <format_string+0x44>
 804991c:	8b 45 10             	mov    0x10(%ebp),%eax
 804991f:	8b 00                	mov    (%eax),%eax
 8049921:	83 e0 01             	and    $0x1,%eax
 8049924:	85 c0                	test   %eax,%eax
 8049926:	75 27                	jne    804994f <format_string+0x44>
    output_dup (' ', c->width - length, output, aux);
 8049928:	8b 45 10             	mov    0x10(%ebp),%eax
 804992b:	8b 40 04             	mov    0x4(%eax),%eax
 804992e:	2b 45 0c             	sub    0xc(%ebp),%eax
 8049931:	8b 55 18             	mov    0x18(%ebp),%edx
 8049934:	89 54 24 0c          	mov    %edx,0xc(%esp)
 8049938:	8b 55 14             	mov    0x14(%ebp),%edx
 804993b:	89 54 24 08          	mov    %edx,0x8(%esp)
 804993f:	89 44 24 04          	mov    %eax,0x4(%esp)
 8049943:	c7 04 24 20 00 00 00 	movl   $0x20,(%esp)
 804994a:	e8 8a ff ff ff       	call   80498d9 <output_dup>
  for (i = 0; i < length; i++)
 804994f:	c7 45 f4 00 00 00 00 	movl   $0x0,-0xc(%ebp)
 8049956:	eb 1f                	jmp    8049977 <format_string+0x6c>
    output (string[i], aux);
 8049958:	8b 45 f4             	mov    -0xc(%ebp),%eax
 804995b:	03 45 08             	add    0x8(%ebp),%eax
 804995e:	0f b6 00             	movzbl (%eax),%eax
 8049961:	0f be c0             	movsbl %al,%eax
 8049964:	8b 55 18             	mov    0x18(%ebp),%edx
 8049967:	89 54 24 04          	mov    %edx,0x4(%esp)
 804996b:	89 04 24             	mov    %eax,(%esp)
 804996e:	8b 45 14             	mov    0x14(%ebp),%eax
 8049971:	ff d0                	call   *%eax
               void (*output) (char, void *), void *aux) 
{
  int i;
  if (c->width > length && (c->flags & MINUS) == 0)
    output_dup (' ', c->width - length, output, aux);
  for (i = 0; i < length; i++)
 8049973:	83 45 f4 01          	addl   $0x1,-0xc(%ebp)
 8049977:	8b 45 f4             	mov    -0xc(%ebp),%eax
 804997a:	3b 45 0c             	cmp    0xc(%ebp),%eax
 804997d:	7c d9                	jl     8049958 <format_string+0x4d>
    output (string[i], aux);
  if (c->width > length && (c->flags & MINUS) != 0)
 804997f:	8b 45 10             	mov    0x10(%ebp),%eax
 8049982:	8b 40 04             	mov    0x4(%eax),%eax
 8049985:	3b 45 0c             	cmp    0xc(%ebp),%eax
 8049988:	7e 33                	jle    80499bd <format_string+0xb2>
 804998a:	8b 45 10             	mov    0x10(%ebp),%eax
 804998d:	8b 00                	mov    (%eax),%eax
 804998f:	83 e0 01             	and    $0x1,%eax
 8049992:	84 c0                	test   %al,%al
 8049994:	74 27                	je     80499bd <format_string+0xb2>
    output_dup (' ', c->width - length, output, aux);
 8049996:	8b 45 10             	mov    0x10(%ebp),%eax
 8049999:	8b 40 04             	mov    0x4(%eax),%eax
 804999c:	2b 45 0c             	sub    0xc(%ebp),%eax
 804999f:	8b 55 18             	mov    0x18(%ebp),%edx
 80499a2:	89 54 24 0c          	mov    %edx,0xc(%esp)
 80499a6:	8b 55 14             	mov    0x14(%ebp),%edx
 80499a9:	89 54 24 08          	mov    %edx,0x8(%esp)
 80499ad:	89 44 24 04          	mov    %eax,0x4(%esp)
 80499b1:	c7 04 24 20 00 00 00 	movl   $0x20,(%esp)
 80499b8:	e8 1c ff ff ff       	call   80498d9 <output_dup>
}
 80499bd:	c9                   	leave  
 80499be:	c3                   	ret    

080499bf <__printf>:
/* Wrapper for __vprintf() that converts varargs into a
   va_list. */
void
__printf (const char *format,
          void (*output) (char, void *), void *aux, ...) 
{
 80499bf:	55                   	push   %ebp
 80499c0:	89 e5                	mov    %esp,%ebp
 80499c2:	83 ec 28             	sub    $0x28,%esp
  va_list args;

  va_start (args, aux);
 80499c5:	8d 45 14             	lea    0x14(%ebp),%eax
 80499c8:	89 45 f4             	mov    %eax,-0xc(%ebp)
  __vprintf (format, args, output, aux);
 80499cb:	8b 45 f4             	mov    -0xc(%ebp),%eax
 80499ce:	8b 55 10             	mov    0x10(%ebp),%edx
 80499d1:	89 54 24 0c          	mov    %edx,0xc(%esp)
 80499d5:	8b 55 0c             	mov    0xc(%ebp),%edx
 80499d8:	89 54 24 08          	mov    %edx,0x8(%esp)
 80499dc:	89 44 24 04          	mov    %eax,0x4(%esp)
 80499e0:	8b 45 08             	mov    0x8(%ebp),%eax
 80499e3:	89 04 24             	mov    %eax,(%esp)
 80499e6:	e8 d1 f3 ff ff       	call   8048dbc <__vprintf>
  va_end (args);
}
 80499eb:	c9                   	leave  
 80499ec:	c3                   	ret    

080499ed <hex_dump>:
   starting at OFS for the first byte in BUF.  If ASCII is true
   then the corresponding ASCII characters are also rendered
   alongside. */   
void
hex_dump (uintptr_t ofs, const void *buf_, size_t size, bool ascii)
{
 80499ed:	55                   	push   %ebp
 80499ee:	89 e5                	mov    %esp,%ebp
 80499f0:	53                   	push   %ebx
 80499f1:	83 ec 44             	sub    $0x44,%esp
 80499f4:	8b 45 14             	mov    0x14(%ebp),%eax
 80499f7:	88 45 d4             	mov    %al,-0x2c(%ebp)
  const uint8_t *buf = buf_;
 80499fa:	8b 45 0c             	mov    0xc(%ebp),%eax
 80499fd:	89 45 e0             	mov    %eax,-0x20(%ebp)
  const size_t per_line = 16; /* Maximum bytes per line. */
 8049a00:	c7 45 e4 10 00 00 00 	movl   $0x10,-0x1c(%ebp)

  while (size > 0)
 8049a07:	e9 c1 01 00 00       	jmp    8049bcd <hex_dump+0x1e0>
    {
      size_t start, end, n;
      size_t i;
      
      /* Number of bytes on this line. */
      start = ofs % per_line;
 8049a0c:	8b 45 08             	mov    0x8(%ebp),%eax
 8049a0f:	ba 00 00 00 00       	mov    $0x0,%edx
 8049a14:	f7 75 e4             	divl   -0x1c(%ebp)
 8049a17:	89 55 e8             	mov    %edx,-0x18(%ebp)
      end = per_line;
 8049a1a:	8b 45 e4             	mov    -0x1c(%ebp),%eax
 8049a1d:	89 45 ec             	mov    %eax,-0x14(%ebp)
      if (end - start > size)
 8049a20:	8b 45 e8             	mov    -0x18(%ebp),%eax
 8049a23:	8b 55 ec             	mov    -0x14(%ebp),%edx
 8049a26:	89 d1                	mov    %edx,%ecx
 8049a28:	29 c1                	sub    %eax,%ecx
 8049a2a:	89 c8                	mov    %ecx,%eax
 8049a2c:	3b 45 10             	cmp    0x10(%ebp),%eax
 8049a2f:	76 0c                	jbe    8049a3d <hex_dump+0x50>
        end = start + size;
 8049a31:	8b 45 10             	mov    0x10(%ebp),%eax
 8049a34:	8b 55 e8             	mov    -0x18(%ebp),%edx
 8049a37:	8d 04 02             	lea    (%edx,%eax,1),%eax
 8049a3a:	89 45 ec             	mov    %eax,-0x14(%ebp)
      n = end - start;
 8049a3d:	8b 45 e8             	mov    -0x18(%ebp),%eax
 8049a40:	8b 55 ec             	mov    -0x14(%ebp),%edx
 8049a43:	89 d3                	mov    %edx,%ebx
 8049a45:	29 c3                	sub    %eax,%ebx
 8049a47:	89 d8                	mov    %ebx,%eax
 8049a49:	89 45 f0             	mov    %eax,-0x10(%ebp)

      /* Print line. */
      printf ("%08jx  ", (uintmax_t) ROUND_DOWN (ofs, per_line));
 8049a4c:	8b 45 08             	mov    0x8(%ebp),%eax
 8049a4f:	ba 00 00 00 00       	mov    $0x0,%edx
 8049a54:	f7 75 e4             	divl   -0x1c(%ebp)
 8049a57:	0f af 45 e4          	imul   -0x1c(%ebp),%eax
 8049a5b:	ba 00 00 00 00       	mov    $0x0,%edx
 8049a60:	89 44 24 04          	mov    %eax,0x4(%esp)
 8049a64:	89 54 24 08          	mov    %edx,0x8(%esp)
 8049a68:	c7 04 24 90 b3 04 08 	movl   $0x804b390,(%esp)
 8049a6f:	e8 22 f3 ff ff       	call   8048d96 <printf>
      for (i = 0; i < start; i++)
 8049a74:	c7 45 f4 00 00 00 00 	movl   $0x0,-0xc(%ebp)
 8049a7b:	eb 10                	jmp    8049a8d <hex_dump+0xa0>
        printf ("   ");
 8049a7d:	c7 04 24 98 b3 04 08 	movl   $0x804b398,(%esp)
 8049a84:	e8 0d f3 ff ff       	call   8048d96 <printf>
        end = start + size;
      n = end - start;

      /* Print line. */
      printf ("%08jx  ", (uintmax_t) ROUND_DOWN (ofs, per_line));
      for (i = 0; i < start; i++)
 8049a89:	83 45 f4 01          	addl   $0x1,-0xc(%ebp)
 8049a8d:	8b 45 f4             	mov    -0xc(%ebp),%eax
 8049a90:	3b 45 e8             	cmp    -0x18(%ebp),%eax
 8049a93:	72 e8                	jb     8049a7d <hex_dump+0x90>
        printf ("   ");
      for (; i < end; i++) 
 8049a95:	eb 46                	jmp    8049add <hex_dump+0xf0>
        printf ("%02hhx%c",
                buf[i - start], i == per_line / 2 - 1? '-' : ' ');
 8049a97:	8b 45 e4             	mov    -0x1c(%ebp),%eax
 8049a9a:	d1 e8                	shr    %eax
 8049a9c:	83 e8 01             	sub    $0x1,%eax
      /* Print line. */
      printf ("%08jx  ", (uintmax_t) ROUND_DOWN (ofs, per_line));
      for (i = 0; i < start; i++)
        printf ("   ");
      for (; i < end; i++) 
        printf ("%02hhx%c",
 8049a9f:	3b 45 f4             	cmp    -0xc(%ebp),%eax
 8049aa2:	75 07                	jne    8049aab <hex_dump+0xbe>
 8049aa4:	b8 2d 00 00 00       	mov    $0x2d,%eax
 8049aa9:	eb 05                	jmp    8049ab0 <hex_dump+0xc3>
 8049aab:	b8 20 00 00 00       	mov    $0x20,%eax
                buf[i - start], i == per_line / 2 - 1? '-' : ' ');
 8049ab0:	8b 55 e8             	mov    -0x18(%ebp),%edx
 8049ab3:	8b 4d f4             	mov    -0xc(%ebp),%ecx
 8049ab6:	89 cb                	mov    %ecx,%ebx
 8049ab8:	29 d3                	sub    %edx,%ebx
 8049aba:	89 da                	mov    %ebx,%edx
 8049abc:	03 55 e0             	add    -0x20(%ebp),%edx
 8049abf:	0f b6 12             	movzbl (%edx),%edx
      /* Print line. */
      printf ("%08jx  ", (uintmax_t) ROUND_DOWN (ofs, per_line));
      for (i = 0; i < start; i++)
        printf ("   ");
      for (; i < end; i++) 
        printf ("%02hhx%c",
 8049ac2:	0f b6 d2             	movzbl %dl,%edx
 8049ac5:	89 44 24 08          	mov    %eax,0x8(%esp)
 8049ac9:	89 54 24 04          	mov    %edx,0x4(%esp)
 8049acd:	c7 04 24 9c b3 04 08 	movl   $0x804b39c,(%esp)
 8049ad4:	e8 bd f2 ff ff       	call   8048d96 <printf>

      /* Print line. */
      printf ("%08jx  ", (uintmax_t) ROUND_DOWN (ofs, per_line));
      for (i = 0; i < start; i++)
        printf ("   ");
      for (; i < end; i++) 
 8049ad9:	83 45 f4 01          	addl   $0x1,-0xc(%ebp)
 8049add:	8b 45 f4             	mov    -0xc(%ebp),%eax
 8049ae0:	3b 45 ec             	cmp    -0x14(%ebp),%eax
 8049ae3:	72 b2                	jb     8049a97 <hex_dump+0xaa>
        printf ("%02hhx%c",
                buf[i - start], i == per_line / 2 - 1? '-' : ' ');
      if (ascii) 
 8049ae5:	80 7d d4 00          	cmpb   $0x0,-0x2c(%ebp)
 8049ae9:	0f 84 c0 00 00 00    	je     8049baf <hex_dump+0x1c2>
        {
          for (; i < per_line; i++)
 8049aef:	eb 10                	jmp    8049b01 <hex_dump+0x114>
            printf ("   ");
 8049af1:	c7 04 24 98 b3 04 08 	movl   $0x804b398,(%esp)
 8049af8:	e8 99 f2 ff ff       	call   8048d96 <printf>
      for (; i < end; i++) 
        printf ("%02hhx%c",
                buf[i - start], i == per_line / 2 - 1? '-' : ' ');
      if (ascii) 
        {
          for (; i < per_line; i++)
 8049afd:	83 45 f4 01          	addl   $0x1,-0xc(%ebp)
 8049b01:	8b 45 f4             	mov    -0xc(%ebp),%eax
 8049b04:	3b 45 e4             	cmp    -0x1c(%ebp),%eax
 8049b07:	72 e8                	jb     8049af1 <hex_dump+0x104>
            printf ("   ");
          printf ("|");
 8049b09:	c7 04 24 7c 00 00 00 	movl   $0x7c,(%esp)
 8049b10:	e8 55 12 00 00       	call   804ad6a <putchar>
          for (i = 0; i < start; i++)
 8049b15:	c7 45 f4 00 00 00 00 	movl   $0x0,-0xc(%ebp)
 8049b1c:	eb 10                	jmp    8049b2e <hex_dump+0x141>
            printf (" ");
 8049b1e:	c7 04 24 20 00 00 00 	movl   $0x20,(%esp)
 8049b25:	e8 40 12 00 00       	call   804ad6a <putchar>
      if (ascii) 
        {
          for (; i < per_line; i++)
            printf ("   ");
          printf ("|");
          for (i = 0; i < start; i++)
 8049b2a:	83 45 f4 01          	addl   $0x1,-0xc(%ebp)
 8049b2e:	8b 45 f4             	mov    -0xc(%ebp),%eax
 8049b31:	3b 45 e8             	cmp    -0x18(%ebp),%eax
 8049b34:	72 e8                	jb     8049b1e <hex_dump+0x131>
            printf (" ");
          for (; i < end; i++)
 8049b36:	eb 49                	jmp    8049b81 <hex_dump+0x194>
            printf ("%c",
                    isprint (buf[i - start]) ? buf[i - start] : '.');
 8049b38:	8b 45 e8             	mov    -0x18(%ebp),%eax
 8049b3b:	8b 55 f4             	mov    -0xc(%ebp),%edx
 8049b3e:	89 d1                	mov    %edx,%ecx
 8049b40:	29 c1                	sub    %eax,%ecx
 8049b42:	89 c8                	mov    %ecx,%eax
 8049b44:	03 45 e0             	add    -0x20(%ebp),%eax
 8049b47:	0f b6 00             	movzbl (%eax),%eax
 8049b4a:	0f b6 c0             	movzbl %al,%eax
 8049b4d:	89 04 24             	mov    %eax,(%esp)
 8049b50:	e8 50 f1 ff ff       	call   8048ca5 <isprint>
            printf ("   ");
          printf ("|");
          for (i = 0; i < start; i++)
            printf (" ");
          for (; i < end; i++)
            printf ("%c",
 8049b55:	85 c0                	test   %eax,%eax
 8049b57:	74 17                	je     8049b70 <hex_dump+0x183>
                    isprint (buf[i - start]) ? buf[i - start] : '.');
 8049b59:	8b 45 e8             	mov    -0x18(%ebp),%eax
 8049b5c:	8b 55 f4             	mov    -0xc(%ebp),%edx
 8049b5f:	89 d3                	mov    %edx,%ebx
 8049b61:	29 c3                	sub    %eax,%ebx
 8049b63:	89 d8                	mov    %ebx,%eax
 8049b65:	03 45 e0             	add    -0x20(%ebp),%eax
 8049b68:	0f b6 00             	movzbl (%eax),%eax
            printf ("   ");
          printf ("|");
          for (i = 0; i < start; i++)
            printf (" ");
          for (; i < end; i++)
            printf ("%c",
 8049b6b:	0f b6 c0             	movzbl %al,%eax
 8049b6e:	eb 05                	jmp    8049b75 <hex_dump+0x188>
 8049b70:	b8 2e 00 00 00       	mov    $0x2e,%eax
 8049b75:	89 04 24             	mov    %eax,(%esp)
 8049b78:	e8 ed 11 00 00       	call   804ad6a <putchar>
          for (; i < per_line; i++)
            printf ("   ");
          printf ("|");
          for (i = 0; i < start; i++)
            printf (" ");
          for (; i < end; i++)
 8049b7d:	83 45 f4 01          	addl   $0x1,-0xc(%ebp)
 8049b81:	8b 45 f4             	mov    -0xc(%ebp),%eax
 8049b84:	3b 45 ec             	cmp    -0x14(%ebp),%eax
 8049b87:	72 af                	jb     8049b38 <hex_dump+0x14b>
            printf ("%c",
                    isprint (buf[i - start]) ? buf[i - start] : '.');
          for (; i < per_line; i++)
 8049b89:	eb 10                	jmp    8049b9b <hex_dump+0x1ae>
            printf (" ");
 8049b8b:	c7 04 24 20 00 00 00 	movl   $0x20,(%esp)
 8049b92:	e8 d3 11 00 00       	call   804ad6a <putchar>
          for (i = 0; i < start; i++)
            printf (" ");
          for (; i < end; i++)
            printf ("%c",
                    isprint (buf[i - start]) ? buf[i - start] : '.');
          for (; i < per_line; i++)
 8049b97:	83 45 f4 01          	addl   $0x1,-0xc(%ebp)
 8049b9b:	8b 45 f4             	mov    -0xc(%ebp),%eax
 8049b9e:	3b 45 e4             	cmp    -0x1c(%ebp),%eax
 8049ba1:	72 e8                	jb     8049b8b <hex_dump+0x19e>
            printf (" ");
          printf ("|");
 8049ba3:	c7 04 24 7c 00 00 00 	movl   $0x7c,(%esp)
 8049baa:	e8 bb 11 00 00       	call   804ad6a <putchar>
        }
      printf ("\n");
 8049baf:	c7 04 24 0a 00 00 00 	movl   $0xa,(%esp)
 8049bb6:	e8 af 11 00 00       	call   804ad6a <putchar>

      ofs += n;
 8049bbb:	8b 45 f0             	mov    -0x10(%ebp),%eax
 8049bbe:	01 45 08             	add    %eax,0x8(%ebp)
      buf += n;
 8049bc1:	8b 45 f0             	mov    -0x10(%ebp),%eax
 8049bc4:	01 45 e0             	add    %eax,-0x20(%ebp)
      size -= n;
 8049bc7:	8b 45 f0             	mov    -0x10(%ebp),%eax
 8049bca:	29 45 10             	sub    %eax,0x10(%ebp)
hex_dump (uintptr_t ofs, const void *buf_, size_t size, bool ascii)
{
  const uint8_t *buf = buf_;
  const size_t per_line = 16; /* Maximum bytes per line. */

  while (size > 0)
 8049bcd:	83 7d 10 00          	cmpl   $0x0,0x10(%ebp)
 8049bd1:	0f 85 35 fe ff ff    	jne    8049a0c <hex_dump+0x1f>

      ofs += n;
      buf += n;
      size -= n;
    }
}
 8049bd7:	83 c4 44             	add    $0x44,%esp
 8049bda:	5b                   	pop    %ebx
 8049bdb:	5d                   	pop    %ebp
 8049bdc:	c3                   	ret    
 8049bdd:	90                   	nop
 8049bde:	90                   	nop
 8049bdf:	90                   	nop

08049be0 <memcpy>:
/* Copies SIZE bytes from SRC to DST, which must not overlap.
   Returns DST. */
void *
memcpy (void *dst_, const void *src_, size_t size) 
{
  unsigned char *dst = dst_;
 8049be0:	55                   	push   %ebp
 8049be1:	89 e5                	mov    %esp,%ebp
 8049be3:	83 ec 38             	sub    $0x38,%esp
 8049be6:	8b 45 08             	mov    0x8(%ebp),%eax
 8049be9:	89 45 f0             	mov    %eax,-0x10(%ebp)
  const unsigned char *src = src_;
 8049bec:	8b 45 0c             	mov    0xc(%ebp),%eax
 8049bef:	89 45 f4             	mov    %eax,-0xc(%ebp)

  ASSERT (dst != NULL || size == 0);
 8049bf2:	83 7d f0 00          	cmpl   $0x0,-0x10(%ebp)
 8049bf6:	75 32                	jne    8049c2a <memcpy+0x4a>
 8049bf8:	83 7d 10 00          	cmpl   $0x0,0x10(%ebp)
 8049bfc:	74 2c                	je     8049c2a <memcpy+0x4a>
 8049bfe:	c7 44 24 10 af b3 04 	movl   $0x804b3af,0x10(%esp)
 8049c05:	08 
 8049c06:	c7 44 24 0c c8 b3 04 	movl   $0x804b3c8,0xc(%esp)
 8049c0d:	08 
 8049c0e:	c7 44 24 08 08 b5 04 	movl   $0x804b508,0x8(%esp)
 8049c15:	08 
 8049c16:	c7 44 24 04 0c 00 00 	movl   $0xc,0x4(%esp)
 8049c1d:	00 
 8049c1e:	c7 04 24 df b3 04 08 	movl   $0x804b3df,(%esp)
 8049c25:	e8 12 0e 00 00       	call   804aa3c <debug_panic>
  ASSERT (src != NULL || size == 0);
 8049c2a:	83 7d f4 00          	cmpl   $0x0,-0xc(%ebp)
 8049c2e:	75 47                	jne    8049c77 <memcpy+0x97>
 8049c30:	83 7d 10 00          	cmpl   $0x0,0x10(%ebp)
 8049c34:	74 44                	je     8049c7a <memcpy+0x9a>
 8049c36:	c7 44 24 10 f2 b3 04 	movl   $0x804b3f2,0x10(%esp)
 8049c3d:	08 
 8049c3e:	c7 44 24 0c c8 b3 04 	movl   $0x804b3c8,0xc(%esp)
 8049c45:	08 
 8049c46:	c7 44 24 08 08 b5 04 	movl   $0x804b508,0x8(%esp)
 8049c4d:	08 
 8049c4e:	c7 44 24 04 0d 00 00 	movl   $0xd,0x4(%esp)
 8049c55:	00 
 8049c56:	c7 04 24 df b3 04 08 	movl   $0x804b3df,(%esp)
 8049c5d:	e8 da 0d 00 00       	call   804aa3c <debug_panic>

  while (size-- > 0)
    *dst++ = *src++;
 8049c62:	8b 45 f4             	mov    -0xc(%ebp),%eax
 8049c65:	0f b6 10             	movzbl (%eax),%edx
 8049c68:	8b 45 f0             	mov    -0x10(%ebp),%eax
 8049c6b:	88 10                	mov    %dl,(%eax)
 8049c6d:	83 45 f0 01          	addl   $0x1,-0x10(%ebp)
 8049c71:	83 45 f4 01          	addl   $0x1,-0xc(%ebp)
 8049c75:	eb 04                	jmp    8049c7b <memcpy+0x9b>
  const unsigned char *src = src_;

  ASSERT (dst != NULL || size == 0);
  ASSERT (src != NULL || size == 0);

  while (size-- > 0)
 8049c77:	90                   	nop
 8049c78:	eb 01                	jmp    8049c7b <memcpy+0x9b>
 8049c7a:	90                   	nop
 8049c7b:	83 7d 10 00          	cmpl   $0x0,0x10(%ebp)
 8049c7f:	0f 95 c0             	setne  %al
 8049c82:	83 6d 10 01          	subl   $0x1,0x10(%ebp)
 8049c86:	84 c0                	test   %al,%al
 8049c88:	75 d8                	jne    8049c62 <memcpy+0x82>
    *dst++ = *src++;

  return dst_;
 8049c8a:	8b 45 08             	mov    0x8(%ebp),%eax
}
 8049c8d:	c9                   	leave  
 8049c8e:	c3                   	ret    

08049c8f <memmove>:
/* Copies SIZE bytes from SRC to DST, which are allowed to
   overlap.  Returns DST. */
void *
memmove (void *dst_, const void *src_, size_t size) 
{
  unsigned char *dst = dst_;
 8049c8f:	55                   	push   %ebp
 8049c90:	89 e5                	mov    %esp,%ebp
 8049c92:	83 ec 38             	sub    $0x38,%esp
 8049c95:	8b 45 08             	mov    0x8(%ebp),%eax
 8049c98:	89 45 f0             	mov    %eax,-0x10(%ebp)
  const unsigned char *src = src_;
 8049c9b:	8b 45 0c             	mov    0xc(%ebp),%eax
 8049c9e:	89 45 f4             	mov    %eax,-0xc(%ebp)

  ASSERT (dst != NULL || size == 0);
 8049ca1:	83 7d f0 00          	cmpl   $0x0,-0x10(%ebp)
 8049ca5:	75 32                	jne    8049cd9 <memmove+0x4a>
 8049ca7:	83 7d 10 00          	cmpl   $0x0,0x10(%ebp)
 8049cab:	74 2c                	je     8049cd9 <memmove+0x4a>
 8049cad:	c7 44 24 10 af b3 04 	movl   $0x804b3af,0x10(%esp)
 8049cb4:	08 
 8049cb5:	c7 44 24 0c c8 b3 04 	movl   $0x804b3c8,0xc(%esp)
 8049cbc:	08 
 8049cbd:	c7 44 24 08 00 b5 04 	movl   $0x804b500,0x8(%esp)
 8049cc4:	08 
 8049cc5:	c7 44 24 04 1d 00 00 	movl   $0x1d,0x4(%esp)
 8049ccc:	00 
 8049ccd:	c7 04 24 df b3 04 08 	movl   $0x804b3df,(%esp)
 8049cd4:	e8 63 0d 00 00       	call   804aa3c <debug_panic>
  ASSERT (src != NULL || size == 0);
 8049cd9:	83 7d f4 00          	cmpl   $0x0,-0xc(%ebp)
 8049cdd:	75 32                	jne    8049d11 <memmove+0x82>
 8049cdf:	83 7d 10 00          	cmpl   $0x0,0x10(%ebp)
 8049ce3:	74 2c                	je     8049d11 <memmove+0x82>
 8049ce5:	c7 44 24 10 f2 b3 04 	movl   $0x804b3f2,0x10(%esp)
 8049cec:	08 
 8049ced:	c7 44 24 0c c8 b3 04 	movl   $0x804b3c8,0xc(%esp)
 8049cf4:	08 
 8049cf5:	c7 44 24 08 00 b5 04 	movl   $0x804b500,0x8(%esp)
 8049cfc:	08 
 8049cfd:	c7 44 24 04 1e 00 00 	movl   $0x1e,0x4(%esp)
 8049d04:	00 
 8049d05:	c7 04 24 df b3 04 08 	movl   $0x804b3df,(%esp)
 8049d0c:	e8 2b 0d 00 00       	call   804aa3c <debug_panic>

  if (dst < src) 
 8049d11:	8b 45 f0             	mov    -0x10(%ebp),%eax
 8049d14:	3b 45 f4             	cmp    -0xc(%ebp),%eax
 8049d17:	73 26                	jae    8049d3f <memmove+0xb0>
    {
      while (size-- > 0)
 8049d19:	eb 13                	jmp    8049d2e <memmove+0x9f>
        *dst++ = *src++;
 8049d1b:	8b 45 f4             	mov    -0xc(%ebp),%eax
 8049d1e:	0f b6 10             	movzbl (%eax),%edx
 8049d21:	8b 45 f0             	mov    -0x10(%ebp),%eax
 8049d24:	88 10                	mov    %dl,(%eax)
 8049d26:	83 45 f0 01          	addl   $0x1,-0x10(%ebp)
 8049d2a:	83 45 f4 01          	addl   $0x1,-0xc(%ebp)
  ASSERT (dst != NULL || size == 0);
  ASSERT (src != NULL || size == 0);

  if (dst < src) 
    {
      while (size-- > 0)
 8049d2e:	83 7d 10 00          	cmpl   $0x0,0x10(%ebp)
 8049d32:	0f 95 c0             	setne  %al
 8049d35:	83 6d 10 01          	subl   $0x1,0x10(%ebp)
 8049d39:	84 c0                	test   %al,%al
 8049d3b:	75 de                	jne    8049d1b <memmove+0x8c>
 8049d3d:	eb 30                	jmp    8049d6f <memmove+0xe0>
        *dst++ = *src++;
    }
  else 
    {
      dst += size;
 8049d3f:	8b 45 10             	mov    0x10(%ebp),%eax
 8049d42:	01 45 f0             	add    %eax,-0x10(%ebp)
      src += size;
 8049d45:	8b 45 10             	mov    0x10(%ebp),%eax
 8049d48:	01 45 f4             	add    %eax,-0xc(%ebp)
      while (size-- > 0)
 8049d4b:	eb 13                	jmp    8049d60 <memmove+0xd1>
        *--dst = *--src;
 8049d4d:	83 6d f0 01          	subl   $0x1,-0x10(%ebp)
 8049d51:	83 6d f4 01          	subl   $0x1,-0xc(%ebp)
 8049d55:	8b 45 f4             	mov    -0xc(%ebp),%eax
 8049d58:	0f b6 10             	movzbl (%eax),%edx
 8049d5b:	8b 45 f0             	mov    -0x10(%ebp),%eax
 8049d5e:	88 10                	mov    %dl,(%eax)
    }
  else 
    {
      dst += size;
      src += size;
      while (size-- > 0)
 8049d60:	83 7d 10 00          	cmpl   $0x0,0x10(%ebp)
 8049d64:	0f 95 c0             	setne  %al
 8049d67:	83 6d 10 01          	subl   $0x1,0x10(%ebp)
 8049d6b:	84 c0                	test   %al,%al
 8049d6d:	75 de                	jne    8049d4d <memmove+0xbe>
        *--dst = *--src;
    }

  return dst;
 8049d6f:	8b 45 f0             	mov    -0x10(%ebp),%eax
}
 8049d72:	c9                   	leave  
 8049d73:	c3                   	ret    

08049d74 <memcmp>:
   greater, a negative value if the byte in B is greater, or zero
   if blocks A and B are equal. */
int
memcmp (const void *a_, const void *b_, size_t size) 
{
  const unsigned char *a = a_;
 8049d74:	55                   	push   %ebp
 8049d75:	89 e5                	mov    %esp,%ebp
 8049d77:	83 ec 38             	sub    $0x38,%esp
 8049d7a:	8b 45 08             	mov    0x8(%ebp),%eax
 8049d7d:	89 45 f0             	mov    %eax,-0x10(%ebp)
  const unsigned char *b = b_;
 8049d80:	8b 45 0c             	mov    0xc(%ebp),%eax
 8049d83:	89 45 f4             	mov    %eax,-0xc(%ebp)

  ASSERT (a != NULL || size == 0);
 8049d86:	83 7d f0 00          	cmpl   $0x0,-0x10(%ebp)
 8049d8a:	75 32                	jne    8049dbe <memcmp+0x4a>
 8049d8c:	83 7d 10 00          	cmpl   $0x0,0x10(%ebp)
 8049d90:	74 2c                	je     8049dbe <memcmp+0x4a>
 8049d92:	c7 44 24 10 0b b4 04 	movl   $0x804b40b,0x10(%esp)
 8049d99:	08 
 8049d9a:	c7 44 24 0c c8 b3 04 	movl   $0x804b3c8,0xc(%esp)
 8049da1:	08 
 8049da2:	c7 44 24 08 f9 b4 04 	movl   $0x804b4f9,0x8(%esp)
 8049da9:	08 
 8049daa:	c7 44 24 04 3a 00 00 	movl   $0x3a,0x4(%esp)
 8049db1:	00 
 8049db2:	c7 04 24 df b3 04 08 	movl   $0x804b3df,(%esp)
 8049db9:	e8 7e 0c 00 00       	call   804aa3c <debug_panic>
  ASSERT (b != NULL || size == 0);
 8049dbe:	83 7d f4 00          	cmpl   $0x0,-0xc(%ebp)
 8049dc2:	75 6a                	jne    8049e2e <memcmp+0xba>
 8049dc4:	83 7d 10 00          	cmpl   $0x0,0x10(%ebp)
 8049dc8:	74 67                	je     8049e31 <memcmp+0xbd>
 8049dca:	c7 44 24 10 22 b4 04 	movl   $0x804b422,0x10(%esp)
 8049dd1:	08 
 8049dd2:	c7 44 24 0c c8 b3 04 	movl   $0x804b3c8,0xc(%esp)
 8049dd9:	08 
 8049dda:	c7 44 24 08 f9 b4 04 	movl   $0x804b4f9,0x8(%esp)
 8049de1:	08 
 8049de2:	c7 44 24 04 3b 00 00 	movl   $0x3b,0x4(%esp)
 8049de9:	00 
 8049dea:	c7 04 24 df b3 04 08 	movl   $0x804b3df,(%esp)
 8049df1:	e8 46 0c 00 00       	call   804aa3c <debug_panic>

  for (; size-- > 0; a++, b++)
    if (*a != *b)
 8049df6:	8b 45 f0             	mov    -0x10(%ebp),%eax
 8049df9:	0f b6 10             	movzbl (%eax),%edx
 8049dfc:	8b 45 f4             	mov    -0xc(%ebp),%eax
 8049dff:	0f b6 00             	movzbl (%eax),%eax
 8049e02:	38 c2                	cmp    %al,%dl
 8049e04:	74 1e                	je     8049e24 <memcmp+0xb0>
      return *a > *b ? +1 : -1;
 8049e06:	8b 45 f0             	mov    -0x10(%ebp),%eax
 8049e09:	0f b6 10             	movzbl (%eax),%edx
 8049e0c:	8b 45 f4             	mov    -0xc(%ebp),%eax
 8049e0f:	0f b6 00             	movzbl (%eax),%eax
 8049e12:	38 c2                	cmp    %al,%dl
 8049e14:	76 07                	jbe    8049e1d <memcmp+0xa9>
 8049e16:	b8 01 00 00 00       	mov    $0x1,%eax
 8049e1b:	eb 05                	jmp    8049e22 <memcmp+0xae>
 8049e1d:	b8 ff ff ff ff       	mov    $0xffffffff,%eax
 8049e22:	eb 22                	jmp    8049e46 <memcmp+0xd2>
  const unsigned char *b = b_;

  ASSERT (a != NULL || size == 0);
  ASSERT (b != NULL || size == 0);

  for (; size-- > 0; a++, b++)
 8049e24:	83 45 f0 01          	addl   $0x1,-0x10(%ebp)
 8049e28:	83 45 f4 01          	addl   $0x1,-0xc(%ebp)
 8049e2c:	eb 04                	jmp    8049e32 <memcmp+0xbe>
 8049e2e:	90                   	nop
 8049e2f:	eb 01                	jmp    8049e32 <memcmp+0xbe>
 8049e31:	90                   	nop
 8049e32:	83 7d 10 00          	cmpl   $0x0,0x10(%ebp)
 8049e36:	0f 95 c0             	setne  %al
 8049e39:	83 6d 10 01          	subl   $0x1,0x10(%ebp)
 8049e3d:	84 c0                	test   %al,%al
 8049e3f:	75 b5                	jne    8049df6 <memcmp+0x82>
    if (*a != *b)
      return *a > *b ? +1 : -1;
  return 0;
 8049e41:	b8 00 00 00 00       	mov    $0x0,%eax
}
 8049e46:	c9                   	leave  
 8049e47:	c3                   	ret    

08049e48 <strcmp>:
   an unsigned char) is greater, or zero if strings A and B are
   equal. */
int
strcmp (const char *a_, const char *b_) 
{
  const unsigned char *a = (const unsigned char *) a_;
 8049e48:	55                   	push   %ebp
 8049e49:	89 e5                	mov    %esp,%ebp
 8049e4b:	83 ec 38             	sub    $0x38,%esp
 8049e4e:	8b 45 08             	mov    0x8(%ebp),%eax
 8049e51:	89 45 f0             	mov    %eax,-0x10(%ebp)
  const unsigned char *b = (const unsigned char *) b_;
 8049e54:	8b 45 0c             	mov    0xc(%ebp),%eax
 8049e57:	89 45 f4             	mov    %eax,-0xc(%ebp)

  ASSERT (a != NULL);
 8049e5a:	83 7d f0 00          	cmpl   $0x0,-0x10(%ebp)
 8049e5e:	74 08                	je     8049e68 <strcmp+0x20>
  ASSERT (b != NULL);
 8049e60:	83 7d f4 00          	cmpl   $0x0,-0xc(%ebp)
 8049e64:	75 64                	jne    8049eca <strcmp+0x82>
 8049e66:	eb 2c                	jmp    8049e94 <strcmp+0x4c>
strcmp (const char *a_, const char *b_) 
{
  const unsigned char *a = (const unsigned char *) a_;
  const unsigned char *b = (const unsigned char *) b_;

  ASSERT (a != NULL);
 8049e68:	c7 44 24 10 39 b4 04 	movl   $0x804b439,0x10(%esp)
 8049e6f:	08 
 8049e70:	c7 44 24 0c c8 b3 04 	movl   $0x804b3c8,0xc(%esp)
 8049e77:	08 
 8049e78:	c7 44 24 08 f2 b4 04 	movl   $0x804b4f2,0x8(%esp)
 8049e7f:	08 
 8049e80:	c7 44 24 04 4e 00 00 	movl   $0x4e,0x4(%esp)
 8049e87:	00 
 8049e88:	c7 04 24 df b3 04 08 	movl   $0x804b3df,(%esp)
 8049e8f:	e8 a8 0b 00 00       	call   804aa3c <debug_panic>
  ASSERT (b != NULL);
 8049e94:	c7 44 24 10 43 b4 04 	movl   $0x804b443,0x10(%esp)
 8049e9b:	08 
 8049e9c:	c7 44 24 0c c8 b3 04 	movl   $0x804b3c8,0xc(%esp)
 8049ea3:	08 
 8049ea4:	c7 44 24 08 f2 b4 04 	movl   $0x804b4f2,0x8(%esp)
 8049eab:	08 
 8049eac:	c7 44 24 04 4f 00 00 	movl   $0x4f,0x4(%esp)
 8049eb3:	00 
 8049eb4:	c7 04 24 df b3 04 08 	movl   $0x804b3df,(%esp)
 8049ebb:	e8 7c 0b 00 00       	call   804aa3c <debug_panic>

  while (*a != '\0' && *a == *b) 
    {
      a++;
 8049ec0:	83 45 f0 01          	addl   $0x1,-0x10(%ebp)
      b++;
 8049ec4:	83 45 f4 01          	addl   $0x1,-0xc(%ebp)
 8049ec8:	eb 01                	jmp    8049ecb <strcmp+0x83>
  const unsigned char *b = (const unsigned char *) b_;

  ASSERT (a != NULL);
  ASSERT (b != NULL);

  while (*a != '\0' && *a == *b) 
 8049eca:	90                   	nop
 8049ecb:	8b 45 f0             	mov    -0x10(%ebp),%eax
 8049ece:	0f b6 00             	movzbl (%eax),%eax
 8049ed1:	84 c0                	test   %al,%al
 8049ed3:	74 10                	je     8049ee5 <strcmp+0x9d>
 8049ed5:	8b 45 f0             	mov    -0x10(%ebp),%eax
 8049ed8:	0f b6 10             	movzbl (%eax),%edx
 8049edb:	8b 45 f4             	mov    -0xc(%ebp),%eax
 8049ede:	0f b6 00             	movzbl (%eax),%eax
 8049ee1:	38 c2                	cmp    %al,%dl
 8049ee3:	74 db                	je     8049ec0 <strcmp+0x78>
    {
      a++;
      b++;
    }

  return *a < *b ? -1 : *a > *b;
 8049ee5:	8b 45 f0             	mov    -0x10(%ebp),%eax
 8049ee8:	0f b6 10             	movzbl (%eax),%edx
 8049eeb:	8b 45 f4             	mov    -0xc(%ebp),%eax
 8049eee:	0f b6 00             	movzbl (%eax),%eax
 8049ef1:	38 c2                	cmp    %al,%dl
 8049ef3:	72 16                	jb     8049f0b <strcmp+0xc3>
 8049ef5:	8b 45 f0             	mov    -0x10(%ebp),%eax
 8049ef8:	0f b6 10             	movzbl (%eax),%edx
 8049efb:	8b 45 f4             	mov    -0xc(%ebp),%eax
 8049efe:	0f b6 00             	movzbl (%eax),%eax
 8049f01:	38 c2                	cmp    %al,%dl
 8049f03:	0f 97 c0             	seta   %al
 8049f06:	0f b6 c0             	movzbl %al,%eax
 8049f09:	eb 05                	jmp    8049f10 <strcmp+0xc8>
 8049f0b:	b8 ff ff ff ff       	mov    $0xffffffff,%eax
}
 8049f10:	c9                   	leave  
 8049f11:	c3                   	ret    

08049f12 <memchr>:
   SIZE bytes starting at BLOCK.  Returns a null pointer if CH
   does not occur in BLOCK. */
void *
memchr (const void *block_, int ch_, size_t size) 
{
  const unsigned char *block = block_;
 8049f12:	55                   	push   %ebp
 8049f13:	89 e5                	mov    %esp,%ebp
 8049f15:	83 ec 38             	sub    $0x38,%esp
 8049f18:	8b 45 08             	mov    0x8(%ebp),%eax
 8049f1b:	89 45 f0             	mov    %eax,-0x10(%ebp)
  unsigned char ch = ch_;
 8049f1e:	8b 45 0c             	mov    0xc(%ebp),%eax
 8049f21:	88 45 f7             	mov    %al,-0x9(%ebp)

  ASSERT (block != NULL || size == 0);
 8049f24:	83 7d f0 00          	cmpl   $0x0,-0x10(%ebp)
 8049f28:	75 48                	jne    8049f72 <memchr+0x60>
 8049f2a:	83 7d 10 00          	cmpl   $0x0,0x10(%ebp)
 8049f2e:	74 45                	je     8049f75 <memchr+0x63>
 8049f30:	c7 44 24 10 4d b4 04 	movl   $0x804b44d,0x10(%esp)
 8049f37:	08 
 8049f38:	c7 44 24 0c c8 b3 04 	movl   $0x804b3c8,0xc(%esp)
 8049f3f:	08 
 8049f40:	c7 44 24 08 eb b4 04 	movl   $0x804b4eb,0x8(%esp)
 8049f47:	08 
 8049f48:	c7 44 24 04 63 00 00 	movl   $0x63,0x4(%esp)
 8049f4f:	00 
 8049f50:	c7 04 24 df b3 04 08 	movl   $0x804b3df,(%esp)
 8049f57:	e8 e0 0a 00 00       	call   804aa3c <debug_panic>

  for (; size-- > 0; block++)
    if (*block == ch)
 8049f5c:	8b 45 f0             	mov    -0x10(%ebp),%eax
 8049f5f:	0f b6 00             	movzbl (%eax),%eax
 8049f62:	3a 45 f7             	cmp    -0x9(%ebp),%al
 8049f65:	75 05                	jne    8049f6c <memchr+0x5a>
      return (void *) block;
 8049f67:	8b 45 f0             	mov    -0x10(%ebp),%eax
 8049f6a:	eb 1e                	jmp    8049f8a <memchr+0x78>
  const unsigned char *block = block_;
  unsigned char ch = ch_;

  ASSERT (block != NULL || size == 0);

  for (; size-- > 0; block++)
 8049f6c:	83 45 f0 01          	addl   $0x1,-0x10(%ebp)
 8049f70:	eb 04                	jmp    8049f76 <memchr+0x64>
 8049f72:	90                   	nop
 8049f73:	eb 01                	jmp    8049f76 <memchr+0x64>
 8049f75:	90                   	nop
 8049f76:	83 7d 10 00          	cmpl   $0x0,0x10(%ebp)
 8049f7a:	0f 95 c0             	setne  %al
 8049f7d:	83 6d 10 01          	subl   $0x1,0x10(%ebp)
 8049f81:	84 c0                	test   %al,%al
 8049f83:	75 d7                	jne    8049f5c <memchr+0x4a>
    if (*block == ch)
      return (void *) block;

  return NULL;
 8049f85:	b8 00 00 00 00       	mov    $0x0,%eax
}
 8049f8a:	c9                   	leave  
 8049f8b:	c3                   	ret    

08049f8c <strchr>:
   then returns a pointer to the null terminator at the end of
   STRING. */
char *
strchr (const char *string, int c_) 
{
  char c = c_;
 8049f8c:	55                   	push   %ebp
 8049f8d:	89 e5                	mov    %esp,%ebp
 8049f8f:	83 ec 38             	sub    $0x38,%esp
 8049f92:	8b 45 0c             	mov    0xc(%ebp),%eax
 8049f95:	88 45 f7             	mov    %al,-0x9(%ebp)

  ASSERT (string != NULL);
 8049f98:	83 7d 08 00          	cmpl   $0x0,0x8(%ebp)
 8049f9c:	75 2c                	jne    8049fca <strchr+0x3e>
 8049f9e:	c7 44 24 10 68 b4 04 	movl   $0x804b468,0x10(%esp)
 8049fa5:	08 
 8049fa6:	c7 44 24 0c c8 b3 04 	movl   $0x804b3c8,0xc(%esp)
 8049fad:	08 
 8049fae:	c7 44 24 08 e4 b4 04 	movl   $0x804b4e4,0x8(%esp)
 8049fb5:	08 
 8049fb6:	c7 44 24 04 75 00 00 	movl   $0x75,0x4(%esp)
 8049fbd:	00 
 8049fbe:	c7 04 24 df b3 04 08 	movl   $0x804b3df,(%esp)
 8049fc5:	e8 72 0a 00 00       	call   804aa3c <debug_panic>

  for (;;) 
    if (*string == c)
 8049fca:	8b 45 08             	mov    0x8(%ebp),%eax
 8049fcd:	0f b6 00             	movzbl (%eax),%eax
 8049fd0:	3a 45 f7             	cmp    -0x9(%ebp),%al
 8049fd3:	75 05                	jne    8049fda <strchr+0x4e>
      return (char *) string;
 8049fd5:	8b 45 08             	mov    0x8(%ebp),%eax
 8049fd8:	eb 17                	jmp    8049ff1 <strchr+0x65>
    else if (*string == '\0')
 8049fda:	8b 45 08             	mov    0x8(%ebp),%eax
 8049fdd:	0f b6 00             	movzbl (%eax),%eax
 8049fe0:	84 c0                	test   %al,%al
 8049fe2:	75 07                	jne    8049feb <strchr+0x5f>
      return NULL;
 8049fe4:	b8 00 00 00 00       	mov    $0x0,%eax
 8049fe9:	eb 06                	jmp    8049ff1 <strchr+0x65>
    else
      string++;
 8049feb:	83 45 08 01          	addl   $0x1,0x8(%ebp)
 8049fef:	eb d9                	jmp    8049fca <strchr+0x3e>
}
 8049ff1:	c9                   	leave  
 8049ff2:	c3                   	ret    

08049ff3 <strcspn>:
size_t
strcspn (const char *string, const char *stop) 
{
  size_t length;

  for (length = 0; string[length] != '\0'; length++)
 8049ff3:	55                   	push   %ebp
 8049ff4:	89 e5                	mov    %esp,%ebp
 8049ff6:	83 ec 28             	sub    $0x28,%esp
 8049ff9:	c7 45 f4 00 00 00 00 	movl   $0x0,-0xc(%ebp)
 804a000:	eb 26                	jmp    804a028 <strcspn+0x35>
    if (strchr (stop, string[length]) != NULL)
 804a002:	8b 45 f4             	mov    -0xc(%ebp),%eax
 804a005:	8b 55 08             	mov    0x8(%ebp),%edx
 804a008:	8d 04 02             	lea    (%edx,%eax,1),%eax
 804a00b:	0f b6 00             	movzbl (%eax),%eax
 804a00e:	0f be c0             	movsbl %al,%eax
 804a011:	89 44 24 04          	mov    %eax,0x4(%esp)
 804a015:	8b 45 0c             	mov    0xc(%ebp),%eax
 804a018:	89 04 24             	mov    %eax,(%esp)
 804a01b:	e8 6c ff ff ff       	call   8049f8c <strchr>
 804a020:	85 c0                	test   %eax,%eax
 804a022:	75 16                	jne    804a03a <strcspn+0x47>
size_t
strcspn (const char *string, const char *stop) 
{
  size_t length;

  for (length = 0; string[length] != '\0'; length++)
 804a024:	83 45 f4 01          	addl   $0x1,-0xc(%ebp)
 804a028:	8b 45 f4             	mov    -0xc(%ebp),%eax
 804a02b:	8b 55 08             	mov    0x8(%ebp),%edx
 804a02e:	8d 04 02             	lea    (%edx,%eax,1),%eax
 804a031:	0f b6 00             	movzbl (%eax),%eax
 804a034:	84 c0                	test   %al,%al
 804a036:	75 ca                	jne    804a002 <strcspn+0xf>
 804a038:	eb 01                	jmp    804a03b <strcspn+0x48>
    if (strchr (stop, string[length]) != NULL)
      break;
 804a03a:	90                   	nop
  return length;
 804a03b:	8b 45 f4             	mov    -0xc(%ebp),%eax
}
 804a03e:	c9                   	leave  
 804a03f:	c3                   	ret    

0804a040 <strpbrk>:
   also in STOP.  If no character in STRING is in STOP, returns a
   null pointer. */
char *
strpbrk (const char *string, const char *stop) 
{
  for (; *string != '\0'; string++)
 804a040:	55                   	push   %ebp
 804a041:	89 e5                	mov    %esp,%ebp
 804a043:	83 ec 18             	sub    $0x18,%esp
 804a046:	eb 25                	jmp    804a06d <strpbrk+0x2d>
    if (strchr (stop, *string) != NULL)
 804a048:	8b 45 08             	mov    0x8(%ebp),%eax
 804a04b:	0f b6 00             	movzbl (%eax),%eax
 804a04e:	0f be c0             	movsbl %al,%eax
 804a051:	89 44 24 04          	mov    %eax,0x4(%esp)
 804a055:	8b 45 0c             	mov    0xc(%ebp),%eax
 804a058:	89 04 24             	mov    %eax,(%esp)
 804a05b:	e8 2c ff ff ff       	call   8049f8c <strchr>
 804a060:	85 c0                	test   %eax,%eax
 804a062:	74 05                	je     804a069 <strpbrk+0x29>
      return (char *) string;
 804a064:	8b 45 08             	mov    0x8(%ebp),%eax
 804a067:	eb 13                	jmp    804a07c <strpbrk+0x3c>
   also in STOP.  If no character in STRING is in STOP, returns a
   null pointer. */
char *
strpbrk (const char *string, const char *stop) 
{
  for (; *string != '\0'; string++)
 804a069:	83 45 08 01          	addl   $0x1,0x8(%ebp)
 804a06d:	8b 45 08             	mov    0x8(%ebp),%eax
 804a070:	0f b6 00             	movzbl (%eax),%eax
 804a073:	84 c0                	test   %al,%al
 804a075:	75 d1                	jne    804a048 <strpbrk+0x8>
    if (strchr (stop, *string) != NULL)
      return (char *) string;
  return NULL;
 804a077:	b8 00 00 00 00       	mov    $0x0,%eax
}
 804a07c:	c9                   	leave  
 804a07d:	c3                   	ret    

0804a07e <strrchr>:
/* Returns a pointer to the last occurrence of C in STRING.
   Returns a null pointer if C does not occur in STRING. */
char *
strrchr (const char *string, int c_) 
{
  char c = c_;
 804a07e:	55                   	push   %ebp
 804a07f:	89 e5                	mov    %esp,%ebp
 804a081:	83 ec 10             	sub    $0x10,%esp
 804a084:	8b 45 0c             	mov    0xc(%ebp),%eax
 804a087:	88 45 fb             	mov    %al,-0x5(%ebp)
  const char *p = NULL;
 804a08a:	c7 45 fc 00 00 00 00 	movl   $0x0,-0x4(%ebp)

  for (; *string != '\0'; string++)
 804a091:	eb 15                	jmp    804a0a8 <strrchr+0x2a>
    if (*string == c)
 804a093:	8b 45 08             	mov    0x8(%ebp),%eax
 804a096:	0f b6 00             	movzbl (%eax),%eax
 804a099:	3a 45 fb             	cmp    -0x5(%ebp),%al
 804a09c:	75 06                	jne    804a0a4 <strrchr+0x26>
      p = string;
 804a09e:	8b 45 08             	mov    0x8(%ebp),%eax
 804a0a1:	89 45 fc             	mov    %eax,-0x4(%ebp)
strrchr (const char *string, int c_) 
{
  char c = c_;
  const char *p = NULL;

  for (; *string != '\0'; string++)
 804a0a4:	83 45 08 01          	addl   $0x1,0x8(%ebp)
 804a0a8:	8b 45 08             	mov    0x8(%ebp),%eax
 804a0ab:	0f b6 00             	movzbl (%eax),%eax
 804a0ae:	84 c0                	test   %al,%al
 804a0b0:	75 e1                	jne    804a093 <strrchr+0x15>
    if (*string == c)
      p = string;
  return (char *) p;
 804a0b2:	8b 45 fc             	mov    -0x4(%ebp),%eax
}
 804a0b5:	c9                   	leave  
 804a0b6:	c3                   	ret    

0804a0b7 <strspn>:
size_t
strspn (const char *string, const char *skip) 
{
  size_t length;
  
  for (length = 0; string[length] != '\0'; length++)
 804a0b7:	55                   	push   %ebp
 804a0b8:	89 e5                	mov    %esp,%ebp
 804a0ba:	83 ec 28             	sub    $0x28,%esp
 804a0bd:	c7 45 f4 00 00 00 00 	movl   $0x0,-0xc(%ebp)
 804a0c4:	eb 26                	jmp    804a0ec <strspn+0x35>
    if (strchr (skip, string[length]) == NULL)
 804a0c6:	8b 45 f4             	mov    -0xc(%ebp),%eax
 804a0c9:	8b 55 08             	mov    0x8(%ebp),%edx
 804a0cc:	8d 04 02             	lea    (%edx,%eax,1),%eax
 804a0cf:	0f b6 00             	movzbl (%eax),%eax
 804a0d2:	0f be c0             	movsbl %al,%eax
 804a0d5:	89 44 24 04          	mov    %eax,0x4(%esp)
 804a0d9:	8b 45 0c             	mov    0xc(%ebp),%eax
 804a0dc:	89 04 24             	mov    %eax,(%esp)
 804a0df:	e8 a8 fe ff ff       	call   8049f8c <strchr>
 804a0e4:	85 c0                	test   %eax,%eax
 804a0e6:	74 16                	je     804a0fe <strspn+0x47>
size_t
strspn (const char *string, const char *skip) 
{
  size_t length;
  
  for (length = 0; string[length] != '\0'; length++)
 804a0e8:	83 45 f4 01          	addl   $0x1,-0xc(%ebp)
 804a0ec:	8b 45 f4             	mov    -0xc(%ebp),%eax
 804a0ef:	8b 55 08             	mov    0x8(%ebp),%edx
 804a0f2:	8d 04 02             	lea    (%edx,%eax,1),%eax
 804a0f5:	0f b6 00             	movzbl (%eax),%eax
 804a0f8:	84 c0                	test   %al,%al
 804a0fa:	75 ca                	jne    804a0c6 <strspn+0xf>
 804a0fc:	eb 01                	jmp    804a0ff <strspn+0x48>
    if (strchr (skip, string[length]) == NULL)
      break;
 804a0fe:	90                   	nop
  return length;
 804a0ff:	8b 45 f4             	mov    -0xc(%ebp),%eax
}
 804a102:	c9                   	leave  
 804a103:	c3                   	ret    

0804a104 <strstr>:
   HAYSTACK.  Returns a null pointer if NEEDLE does not exist
   within HAYSTACK. */
char *
strstr (const char *haystack, const char *needle) 
{
  size_t haystack_len = strlen (haystack);
 804a104:	55                   	push   %ebp
 804a105:	89 e5                	mov    %esp,%ebp
 804a107:	83 ec 28             	sub    $0x28,%esp
 804a10a:	8b 45 08             	mov    0x8(%ebp),%eax
 804a10d:	89 04 24             	mov    %eax,(%esp)
 804a110:	e8 13 02 00 00       	call   804a328 <strlen>
 804a115:	89 45 ec             	mov    %eax,-0x14(%ebp)
  size_t needle_len = strlen (needle);
 804a118:	8b 45 0c             	mov    0xc(%ebp),%eax
 804a11b:	89 04 24             	mov    %eax,(%esp)
 804a11e:	e8 05 02 00 00       	call   804a328 <strlen>
 804a123:	89 45 f0             	mov    %eax,-0x10(%ebp)

  if (haystack_len >= needle_len) 
 804a126:	8b 45 ec             	mov    -0x14(%ebp),%eax
 804a129:	3b 45 f0             	cmp    -0x10(%ebp),%eax
 804a12c:	72 4b                	jb     804a179 <strstr+0x75>
    {
      size_t i;

      for (i = 0; i <= haystack_len - needle_len; i++)
 804a12e:	c7 45 f4 00 00 00 00 	movl   $0x0,-0xc(%ebp)
 804a135:	eb 31                	jmp    804a168 <strstr+0x64>
        if (!memcmp (haystack + i, needle, needle_len))
 804a137:	8b 45 f4             	mov    -0xc(%ebp),%eax
 804a13a:	8b 55 08             	mov    0x8(%ebp),%edx
 804a13d:	01 c2                	add    %eax,%edx
 804a13f:	8b 45 f0             	mov    -0x10(%ebp),%eax
 804a142:	89 44 24 08          	mov    %eax,0x8(%esp)
 804a146:	8b 45 0c             	mov    0xc(%ebp),%eax
 804a149:	89 44 24 04          	mov    %eax,0x4(%esp)
 804a14d:	89 14 24             	mov    %edx,(%esp)
 804a150:	e8 1f fc ff ff       	call   8049d74 <memcmp>
 804a155:	85 c0                	test   %eax,%eax
 804a157:	75 0b                	jne    804a164 <strstr+0x60>
          return (char *) haystack + i;
 804a159:	8b 45 f4             	mov    -0xc(%ebp),%eax
 804a15c:	8b 55 08             	mov    0x8(%ebp),%edx
 804a15f:	8d 04 02             	lea    (%edx,%eax,1),%eax
 804a162:	eb 1a                	jmp    804a17e <strstr+0x7a>

  if (haystack_len >= needle_len) 
    {
      size_t i;

      for (i = 0; i <= haystack_len - needle_len; i++)
 804a164:	83 45 f4 01          	addl   $0x1,-0xc(%ebp)
 804a168:	8b 45 f0             	mov    -0x10(%ebp),%eax
 804a16b:	8b 55 ec             	mov    -0x14(%ebp),%edx
 804a16e:	89 d1                	mov    %edx,%ecx
 804a170:	29 c1                	sub    %eax,%ecx
 804a172:	89 c8                	mov    %ecx,%eax
 804a174:	3b 45 f4             	cmp    -0xc(%ebp),%eax
 804a177:	73 be                	jae    804a137 <strstr+0x33>
        if (!memcmp (haystack + i, needle, needle_len))
          return (char *) haystack + i;
    }

  return NULL;
 804a179:	b8 00 00 00 00       	mov    $0x0,%eax
}
 804a17e:	c9                   	leave  
 804a17f:	c3                   	ret    

0804a180 <strtok_r>:
     'to'
     'tokenize.'
*/
char *
strtok_r (char *s, const char *delimiters, char **save_ptr) 
{
 804a180:	55                   	push   %ebp
 804a181:	89 e5                	mov    %esp,%ebp
 804a183:	83 ec 38             	sub    $0x38,%esp
  char *token;
  
  ASSERT (delimiters != NULL);
 804a186:	83 7d 0c 00          	cmpl   $0x0,0xc(%ebp)
 804a18a:	74 08                	je     804a194 <strtok_r+0x14>
  ASSERT (save_ptr != NULL);
 804a18c:	83 7d 10 00          	cmpl   $0x0,0x10(%ebp)
 804a190:	75 2e                	jne    804a1c0 <strtok_r+0x40>
 804a192:	eb 34                	jmp    804a1c8 <strtok_r+0x48>
char *
strtok_r (char *s, const char *delimiters, char **save_ptr) 
{
  char *token;
  
  ASSERT (delimiters != NULL);
 804a194:	c7 44 24 10 77 b4 04 	movl   $0x804b477,0x10(%esp)
 804a19b:	08 
 804a19c:	c7 44 24 0c c8 b3 04 	movl   $0x804b3c8,0xc(%esp)
 804a1a3:	08 
 804a1a4:	c7 44 24 08 db b4 04 	movl   $0x804b4db,0x8(%esp)
 804a1ab:	08 
 804a1ac:	c7 44 24 04 ef 00 00 	movl   $0xef,0x4(%esp)
 804a1b3:	00 
 804a1b4:	c7 04 24 df b3 04 08 	movl   $0x804b3df,(%esp)
 804a1bb:	e8 7c 08 00 00       	call   804aa3c <debug_panic>
  ASSERT (save_ptr != NULL);

  /* If S is nonnull, start from it.
     If S is null, start from saved position. */
  if (s == NULL)
 804a1c0:	83 7d 08 00          	cmpl   $0x0,0x8(%ebp)
 804a1c4:	74 2e                	je     804a1f4 <strtok_r+0x74>
 804a1c6:	eb 34                	jmp    804a1fc <strtok_r+0x7c>
strtok_r (char *s, const char *delimiters, char **save_ptr) 
{
  char *token;
  
  ASSERT (delimiters != NULL);
  ASSERT (save_ptr != NULL);
 804a1c8:	c7 44 24 10 8a b4 04 	movl   $0x804b48a,0x10(%esp)
 804a1cf:	08 
 804a1d0:	c7 44 24 0c c8 b3 04 	movl   $0x804b3c8,0xc(%esp)
 804a1d7:	08 
 804a1d8:	c7 44 24 08 db b4 04 	movl   $0x804b4db,0x8(%esp)
 804a1df:	08 
 804a1e0:	c7 44 24 04 f0 00 00 	movl   $0xf0,0x4(%esp)
 804a1e7:	00 
 804a1e8:	c7 04 24 df b3 04 08 	movl   $0x804b3df,(%esp)
 804a1ef:	e8 48 08 00 00       	call   804aa3c <debug_panic>

  /* If S is nonnull, start from it.
     If S is null, start from saved position. */
  if (s == NULL)
    s = *save_ptr;
 804a1f4:	8b 45 10             	mov    0x10(%ebp),%eax
 804a1f7:	8b 00                	mov    (%eax),%eax
 804a1f9:	89 45 08             	mov    %eax,0x8(%ebp)
  ASSERT (s != NULL);
 804a1fc:	83 7d 08 00          	cmpl   $0x0,0x8(%ebp)
 804a200:	75 4b                	jne    804a24d <strtok_r+0xcd>
 804a202:	c7 44 24 10 9b b4 04 	movl   $0x804b49b,0x10(%esp)
 804a209:	08 
 804a20a:	c7 44 24 0c c8 b3 04 	movl   $0x804b3c8,0xc(%esp)
 804a211:	08 
 804a212:	c7 44 24 08 db b4 04 	movl   $0x804b4db,0x8(%esp)
 804a219:	08 
 804a21a:	c7 44 24 04 f6 00 00 	movl   $0xf6,0x4(%esp)
 804a221:	00 
 804a222:	c7 04 24 df b3 04 08 	movl   $0x804b3df,(%esp)
 804a229:	e8 0e 08 00 00       	call   804aa3c <debug_panic>
  while (strchr (delimiters, *s) != NULL) 
    {
      /* strchr() will always return nonnull if we're searching
         for a null byte, because every string contains a null
         byte (at the end). */
      if (*s == '\0')
 804a22e:	8b 45 08             	mov    0x8(%ebp),%eax
 804a231:	0f b6 00             	movzbl (%eax),%eax
 804a234:	84 c0                	test   %al,%al
 804a236:	75 0f                	jne    804a247 <strtok_r+0xc7>
        {
          *save_ptr = s;
 804a238:	8b 45 10             	mov    0x10(%ebp),%eax
 804a23b:	8b 55 08             	mov    0x8(%ebp),%edx
 804a23e:	89 10                	mov    %edx,(%eax)
          return NULL;
 804a240:	b8 00 00 00 00       	mov    $0x0,%eax
 804a245:	eb 73                	jmp    804a2ba <strtok_r+0x13a>
        }

      s++;
 804a247:	83 45 08 01          	addl   $0x1,0x8(%ebp)
 804a24b:	eb 01                	jmp    804a24e <strtok_r+0xce>
  if (s == NULL)
    s = *save_ptr;
  ASSERT (s != NULL);

  /* Skip any DELIMITERS at our current position. */
  while (strchr (delimiters, *s) != NULL) 
 804a24d:	90                   	nop
 804a24e:	8b 45 08             	mov    0x8(%ebp),%eax
 804a251:	0f b6 00             	movzbl (%eax),%eax
 804a254:	0f be c0             	movsbl %al,%eax
 804a257:	89 44 24 04          	mov    %eax,0x4(%esp)
 804a25b:	8b 45 0c             	mov    0xc(%ebp),%eax
 804a25e:	89 04 24             	mov    %eax,(%esp)
 804a261:	e8 26 fd ff ff       	call   8049f8c <strchr>
 804a266:	85 c0                	test   %eax,%eax
 804a268:	75 c4                	jne    804a22e <strtok_r+0xae>

      s++;
    }

  /* Skip any non-DELIMITERS up to the end of the string. */
  token = s;
 804a26a:	8b 45 08             	mov    0x8(%ebp),%eax
 804a26d:	89 45 f4             	mov    %eax,-0xc(%ebp)
  while (strchr (delimiters, *s) == NULL)
 804a270:	eb 04                	jmp    804a276 <strtok_r+0xf6>
    s++;
 804a272:	83 45 08 01          	addl   $0x1,0x8(%ebp)
      s++;
    }

  /* Skip any non-DELIMITERS up to the end of the string. */
  token = s;
  while (strchr (delimiters, *s) == NULL)
 804a276:	8b 45 08             	mov    0x8(%ebp),%eax
 804a279:	0f b6 00             	movzbl (%eax),%eax
 804a27c:	0f be c0             	movsbl %al,%eax
 804a27f:	89 44 24 04          	mov    %eax,0x4(%esp)
 804a283:	8b 45 0c             	mov    0xc(%ebp),%eax
 804a286:	89 04 24             	mov    %eax,(%esp)
 804a289:	e8 fe fc ff ff       	call   8049f8c <strchr>
 804a28e:	85 c0                	test   %eax,%eax
 804a290:	74 e0                	je     804a272 <strtok_r+0xf2>
    s++;
  if (*s != '\0') 
 804a292:	8b 45 08             	mov    0x8(%ebp),%eax
 804a295:	0f b6 00             	movzbl (%eax),%eax
 804a298:	84 c0                	test   %al,%al
 804a29a:	74 13                	je     804a2af <strtok_r+0x12f>
    {
      *s = '\0';
 804a29c:	8b 45 08             	mov    0x8(%ebp),%eax
 804a29f:	c6 00 00             	movb   $0x0,(%eax)
      *save_ptr = s + 1;
 804a2a2:	8b 45 08             	mov    0x8(%ebp),%eax
 804a2a5:	8d 50 01             	lea    0x1(%eax),%edx
 804a2a8:	8b 45 10             	mov    0x10(%ebp),%eax
 804a2ab:	89 10                	mov    %edx,(%eax)
 804a2ad:	eb 08                	jmp    804a2b7 <strtok_r+0x137>
    }
  else 
    *save_ptr = s;
 804a2af:	8b 45 10             	mov    0x10(%ebp),%eax
 804a2b2:	8b 55 08             	mov    0x8(%ebp),%edx
 804a2b5:	89 10                	mov    %edx,(%eax)
  return token;
 804a2b7:	8b 45 f4             	mov    -0xc(%ebp),%eax
}
 804a2ba:	c9                   	leave  
 804a2bb:	c3                   	ret    

0804a2bc <memset>:

/* Sets the SIZE bytes in DST to VALUE. */
void *
memset (void *dst_, int value, size_t size) 
{
  unsigned char *dst = dst_;
 804a2bc:	55                   	push   %ebp
 804a2bd:	89 e5                	mov    %esp,%ebp
 804a2bf:	83 ec 38             	sub    $0x38,%esp
 804a2c2:	8b 45 08             	mov    0x8(%ebp),%eax
 804a2c5:	89 45 f4             	mov    %eax,-0xc(%ebp)

  ASSERT (dst != NULL || size == 0);
 804a2c8:	83 7d f4 00          	cmpl   $0x0,-0xc(%ebp)
 804a2cc:	75 42                	jne    804a310 <memset+0x54>
 804a2ce:	83 7d 10 00          	cmpl   $0x0,0x10(%ebp)
 804a2d2:	74 3f                	je     804a313 <memset+0x57>
 804a2d4:	c7 44 24 10 af b3 04 	movl   $0x804b3af,0x10(%esp)
 804a2db:	08 
 804a2dc:	c7 44 24 0c c8 b3 04 	movl   $0x804b3c8,0xc(%esp)
 804a2e3:	08 
 804a2e4:	c7 44 24 08 d4 b4 04 	movl   $0x804b4d4,0x8(%esp)
 804a2eb:	08 
 804a2ec:	c7 44 24 04 1b 01 00 	movl   $0x11b,0x4(%esp)
 804a2f3:	00 
 804a2f4:	c7 04 24 df b3 04 08 	movl   $0x804b3df,(%esp)
 804a2fb:	e8 3c 07 00 00       	call   804aa3c <debug_panic>
  
  while (size-- > 0)
    *dst++ = value;
 804a300:	8b 45 0c             	mov    0xc(%ebp),%eax
 804a303:	89 c2                	mov    %eax,%edx
 804a305:	8b 45 f4             	mov    -0xc(%ebp),%eax
 804a308:	88 10                	mov    %dl,(%eax)
 804a30a:	83 45 f4 01          	addl   $0x1,-0xc(%ebp)
 804a30e:	eb 04                	jmp    804a314 <memset+0x58>
{
  unsigned char *dst = dst_;

  ASSERT (dst != NULL || size == 0);
  
  while (size-- > 0)
 804a310:	90                   	nop
 804a311:	eb 01                	jmp    804a314 <memset+0x58>
 804a313:	90                   	nop
 804a314:	83 7d 10 00          	cmpl   $0x0,0x10(%ebp)
 804a318:	0f 95 c0             	setne  %al
 804a31b:	83 6d 10 01          	subl   $0x1,0x10(%ebp)
 804a31f:	84 c0                	test   %al,%al
 804a321:	75 dd                	jne    804a300 <memset+0x44>
    *dst++ = value;

  return dst_;
 804a323:	8b 45 08             	mov    0x8(%ebp),%eax
}
 804a326:	c9                   	leave  
 804a327:	c3                   	ret    

0804a328 <strlen>:
size_t
strlen (const char *string) 
{
  const char *p;

  ASSERT (string != NULL);
 804a328:	55                   	push   %ebp
 804a329:	89 e5                	mov    %esp,%ebp
 804a32b:	83 ec 38             	sub    $0x38,%esp
 804a32e:	83 7d 08 00          	cmpl   $0x0,0x8(%ebp)
 804a332:	74 08                	je     804a33c <strlen+0x14>

  for (p = string; *p != '\0'; p++)
 804a334:	8b 45 08             	mov    0x8(%ebp),%eax
 804a337:	89 45 f4             	mov    %eax,-0xc(%ebp)
 804a33a:	eb 30                	jmp    804a36c <strlen+0x44>
size_t
strlen (const char *string) 
{
  const char *p;

  ASSERT (string != NULL);
 804a33c:	c7 44 24 10 68 b4 04 	movl   $0x804b468,0x10(%esp)
 804a343:	08 
 804a344:	c7 44 24 0c c8 b3 04 	movl   $0x804b3c8,0xc(%esp)
 804a34b:	08 
 804a34c:	c7 44 24 08 cd b4 04 	movl   $0x804b4cd,0x8(%esp)
 804a353:	08 
 804a354:	c7 44 24 04 29 01 00 	movl   $0x129,0x4(%esp)
 804a35b:	00 
 804a35c:	c7 04 24 df b3 04 08 	movl   $0x804b3df,(%esp)
 804a363:	e8 d4 06 00 00       	call   804aa3c <debug_panic>

  for (p = string; *p != '\0'; p++)
 804a368:	83 45 f4 01          	addl   $0x1,-0xc(%ebp)
 804a36c:	8b 45 f4             	mov    -0xc(%ebp),%eax
 804a36f:	0f b6 00             	movzbl (%eax),%eax
 804a372:	84 c0                	test   %al,%al
 804a374:	75 f2                	jne    804a368 <strlen+0x40>
    continue;
  return p - string;
 804a376:	8b 55 f4             	mov    -0xc(%ebp),%edx
 804a379:	8b 45 08             	mov    0x8(%ebp),%eax
 804a37c:	89 d1                	mov    %edx,%ecx
 804a37e:	29 c1                	sub    %eax,%ecx
 804a380:	89 c8                	mov    %ecx,%eax
}
 804a382:	c9                   	leave  
 804a383:	c3                   	ret    

0804a384 <strnlen>:

/* If STRING is less than MAXLEN characters in length, returns
   its actual length.  Otherwise, returns MAXLEN. */
size_t
strnlen (const char *string, size_t maxlen) 
{
 804a384:	55                   	push   %ebp
 804a385:	89 e5                	mov    %esp,%ebp
 804a387:	83 ec 10             	sub    $0x10,%esp
  size_t length;

  for (length = 0; string[length] != '\0' && length < maxlen; length++)
 804a38a:	c7 45 fc 00 00 00 00 	movl   $0x0,-0x4(%ebp)
 804a391:	eb 04                	jmp    804a397 <strnlen+0x13>
    continue;
 804a393:	83 45 fc 01          	addl   $0x1,-0x4(%ebp)
size_t
strnlen (const char *string, size_t maxlen) 
{
  size_t length;

  for (length = 0; string[length] != '\0' && length < maxlen; length++)
 804a397:	8b 45 fc             	mov    -0x4(%ebp),%eax
 804a39a:	8b 55 08             	mov    0x8(%ebp),%edx
 804a39d:	8d 04 02             	lea    (%edx,%eax,1),%eax
 804a3a0:	0f b6 00             	movzbl (%eax),%eax
 804a3a3:	84 c0                	test   %al,%al
 804a3a5:	74 08                	je     804a3af <strnlen+0x2b>
 804a3a7:	8b 45 fc             	mov    -0x4(%ebp),%eax
 804a3aa:	3b 45 0c             	cmp    0xc(%ebp),%eax
 804a3ad:	72 e4                	jb     804a393 <strnlen+0xf>
    continue;
  return length;
 804a3af:	8b 45 fc             	mov    -0x4(%ebp),%eax
}
 804a3b2:	c9                   	leave  
 804a3b3:	c3                   	ret    

0804a3b4 <strlcpy>:
   increasingly popular extension.  See
   http://www.courtesan.com/todd/papers/strlcpy.html for
   information on strlcpy(). */
size_t
strlcpy (char *dst, const char *src, size_t size) 
{
 804a3b4:	55                   	push   %ebp
 804a3b5:	89 e5                	mov    %esp,%ebp
 804a3b7:	83 ec 38             	sub    $0x38,%esp
  size_t src_len;

  ASSERT (dst != NULL);
 804a3ba:	83 7d 08 00          	cmpl   $0x0,0x8(%ebp)
 804a3be:	74 08                	je     804a3c8 <strlcpy+0x14>
  ASSERT (src != NULL);
 804a3c0:	83 7d 0c 00          	cmpl   $0x0,0xc(%ebp)
 804a3c4:	75 2e                	jne    804a3f4 <strlcpy+0x40>
 804a3c6:	eb 42                	jmp    804a40a <strlcpy+0x56>
size_t
strlcpy (char *dst, const char *src, size_t size) 
{
  size_t src_len;

  ASSERT (dst != NULL);
 804a3c8:	c7 44 24 10 a5 b4 04 	movl   $0x804b4a5,0x10(%esp)
 804a3cf:	08 
 804a3d0:	c7 44 24 0c c8 b3 04 	movl   $0x804b3c8,0xc(%esp)
 804a3d7:	08 
 804a3d8:	c7 44 24 08 c5 b4 04 	movl   $0x804b4c5,0x8(%esp)
 804a3df:	08 
 804a3e0:	c7 44 24 04 4a 01 00 	movl   $0x14a,0x4(%esp)
 804a3e7:	00 
 804a3e8:	c7 04 24 df b3 04 08 	movl   $0x804b3df,(%esp)
 804a3ef:	e8 48 06 00 00       	call   804aa3c <debug_panic>
  ASSERT (src != NULL);

  src_len = strlen (src);
 804a3f4:	8b 45 0c             	mov    0xc(%ebp),%eax
 804a3f7:	89 04 24             	mov    %eax,(%esp)
 804a3fa:	e8 29 ff ff ff       	call   804a328 <strlen>
 804a3ff:	89 45 f0             	mov    %eax,-0x10(%ebp)
  if (size > 0) 
 804a402:	83 7d 10 00          	cmpl   $0x0,0x10(%ebp)
 804a406:	75 2e                	jne    804a436 <strlcpy+0x82>
 804a408:	eb 68                	jmp    804a472 <strlcpy+0xbe>
strlcpy (char *dst, const char *src, size_t size) 
{
  size_t src_len;

  ASSERT (dst != NULL);
  ASSERT (src != NULL);
 804a40a:	c7 44 24 10 b1 b4 04 	movl   $0x804b4b1,0x10(%esp)
 804a411:	08 
 804a412:	c7 44 24 0c c8 b3 04 	movl   $0x804b3c8,0xc(%esp)
 804a419:	08 
 804a41a:	c7 44 24 08 c5 b4 04 	movl   $0x804b4c5,0x8(%esp)
 804a421:	08 
 804a422:	c7 44 24 04 4b 01 00 	movl   $0x14b,0x4(%esp)
 804a429:	00 
 804a42a:	c7 04 24 df b3 04 08 	movl   $0x804b3df,(%esp)
 804a431:	e8 06 06 00 00       	call   804aa3c <debug_panic>

  src_len = strlen (src);
  if (size > 0) 
    {
      size_t dst_len = size - 1;
 804a436:	8b 45 10             	mov    0x10(%ebp),%eax
 804a439:	83 e8 01             	sub    $0x1,%eax
 804a43c:	89 45 f4             	mov    %eax,-0xc(%ebp)
      if (src_len < dst_len)
 804a43f:	8b 45 f0             	mov    -0x10(%ebp),%eax
 804a442:	3b 45 f4             	cmp    -0xc(%ebp),%eax
 804a445:	73 06                	jae    804a44d <strlcpy+0x99>
        dst_len = src_len;
 804a447:	8b 45 f0             	mov    -0x10(%ebp),%eax
 804a44a:	89 45 f4             	mov    %eax,-0xc(%ebp)
      memcpy (dst, src, dst_len);
 804a44d:	8b 45 f4             	mov    -0xc(%ebp),%eax
 804a450:	89 44 24 08          	mov    %eax,0x8(%esp)
 804a454:	8b 45 0c             	mov    0xc(%ebp),%eax
 804a457:	89 44 24 04          	mov    %eax,0x4(%esp)
 804a45b:	8b 45 08             	mov    0x8(%ebp),%eax
 804a45e:	89 04 24             	mov    %eax,(%esp)
 804a461:	e8 7a f7 ff ff       	call   8049be0 <memcpy>
      dst[dst_len] = '\0';
 804a466:	8b 45 f4             	mov    -0xc(%ebp),%eax
 804a469:	8b 55 08             	mov    0x8(%ebp),%edx
 804a46c:	8d 04 02             	lea    (%edx,%eax,1),%eax
 804a46f:	c6 00 00             	movb   $0x0,(%eax)
    }
  return src_len;
 804a472:	8b 45 f0             	mov    -0x10(%ebp),%eax
}
 804a475:	c9                   	leave  
 804a476:	c3                   	ret    

0804a477 <strlcat>:
   increasingly popular extension.  See
   http://www.courtesan.com/todd/papers/strlcpy.html for
   information on strlcpy(). */
size_t
strlcat (char *dst, const char *src, size_t size) 
{
 804a477:	55                   	push   %ebp
 804a478:	89 e5                	mov    %esp,%ebp
 804a47a:	83 ec 38             	sub    $0x38,%esp
  size_t src_len, dst_len;

  ASSERT (dst != NULL);
 804a47d:	83 7d 08 00          	cmpl   $0x0,0x8(%ebp)
 804a481:	74 08                	je     804a48b <strlcat+0x14>
  ASSERT (src != NULL);
 804a483:	83 7d 0c 00          	cmpl   $0x0,0xc(%ebp)
 804a487:	75 2e                	jne    804a4b7 <strlcat+0x40>
 804a489:	eb 53                	jmp    804a4de <strlcat+0x67>
size_t
strlcat (char *dst, const char *src, size_t size) 
{
  size_t src_len, dst_len;

  ASSERT (dst != NULL);
 804a48b:	c7 44 24 10 a5 b4 04 	movl   $0x804b4a5,0x10(%esp)
 804a492:	08 
 804a493:	c7 44 24 0c c8 b3 04 	movl   $0x804b3c8,0xc(%esp)
 804a49a:	08 
 804a49b:	c7 44 24 08 bd b4 04 	movl   $0x804b4bd,0x8(%esp)
 804a4a2:	08 
 804a4a3:	c7 44 24 04 68 01 00 	movl   $0x168,0x4(%esp)
 804a4aa:	00 
 804a4ab:	c7 04 24 df b3 04 08 	movl   $0x804b3df,(%esp)
 804a4b2:	e8 85 05 00 00       	call   804aa3c <debug_panic>
  ASSERT (src != NULL);

  src_len = strlen (src);
 804a4b7:	8b 45 0c             	mov    0xc(%ebp),%eax
 804a4ba:	89 04 24             	mov    %eax,(%esp)
 804a4bd:	e8 66 fe ff ff       	call   804a328 <strlen>
 804a4c2:	89 45 ec             	mov    %eax,-0x14(%ebp)
  dst_len = strlen (dst);
 804a4c5:	8b 45 08             	mov    0x8(%ebp),%eax
 804a4c8:	89 04 24             	mov    %eax,(%esp)
 804a4cb:	e8 58 fe ff ff       	call   804a328 <strlen>
 804a4d0:	89 45 f0             	mov    %eax,-0x10(%ebp)
  if (size > 0 && dst_len < size) 
 804a4d3:	83 7d 10 00          	cmpl   $0x0,0x10(%ebp)
 804a4d7:	75 31                	jne    804a50a <strlcat+0x93>
 804a4d9:	e9 81 00 00 00       	jmp    804a55f <strlcat+0xe8>
strlcat (char *dst, const char *src, size_t size) 
{
  size_t src_len, dst_len;

  ASSERT (dst != NULL);
  ASSERT (src != NULL);
 804a4de:	c7 44 24 10 b1 b4 04 	movl   $0x804b4b1,0x10(%esp)
 804a4e5:	08 
 804a4e6:	c7 44 24 0c c8 b3 04 	movl   $0x804b3c8,0xc(%esp)
 804a4ed:	08 
 804a4ee:	c7 44 24 08 bd b4 04 	movl   $0x804b4bd,0x8(%esp)
 804a4f5:	08 
 804a4f6:	c7 44 24 04 69 01 00 	movl   $0x169,0x4(%esp)
 804a4fd:	00 
 804a4fe:	c7 04 24 df b3 04 08 	movl   $0x804b3df,(%esp)
 804a505:	e8 32 05 00 00       	call   804aa3c <debug_panic>

  src_len = strlen (src);
  dst_len = strlen (dst);
  if (size > 0 && dst_len < size) 
 804a50a:	8b 45 f0             	mov    -0x10(%ebp),%eax
 804a50d:	3b 45 10             	cmp    0x10(%ebp),%eax
 804a510:	73 4d                	jae    804a55f <strlcat+0xe8>
    {
      size_t copy_cnt = size - dst_len - 1;
 804a512:	8b 45 f0             	mov    -0x10(%ebp),%eax
 804a515:	8b 55 10             	mov    0x10(%ebp),%edx
 804a518:	89 d1                	mov    %edx,%ecx
 804a51a:	29 c1                	sub    %eax,%ecx
 804a51c:	89 c8                	mov    %ecx,%eax
 804a51e:	83 e8 01             	sub    $0x1,%eax
 804a521:	89 45 f4             	mov    %eax,-0xc(%ebp)
      if (src_len < copy_cnt)
 804a524:	8b 45 ec             	mov    -0x14(%ebp),%eax
 804a527:	3b 45 f4             	cmp    -0xc(%ebp),%eax
 804a52a:	73 06                	jae    804a532 <strlcat+0xbb>
        copy_cnt = src_len;
 804a52c:	8b 45 ec             	mov    -0x14(%ebp),%eax
 804a52f:	89 45 f4             	mov    %eax,-0xc(%ebp)
      memcpy (dst + dst_len, src, copy_cnt);
 804a532:	8b 45 f0             	mov    -0x10(%ebp),%eax
 804a535:	8b 55 08             	mov    0x8(%ebp),%edx
 804a538:	01 c2                	add    %eax,%edx
 804a53a:	8b 45 f4             	mov    -0xc(%ebp),%eax
 804a53d:	89 44 24 08          	mov    %eax,0x8(%esp)
 804a541:	8b 45 0c             	mov    0xc(%ebp),%eax
 804a544:	89 44 24 04          	mov    %eax,0x4(%esp)
 804a548:	89 14 24             	mov    %edx,(%esp)
 804a54b:	e8 90 f6 ff ff       	call   8049be0 <memcpy>
      dst[dst_len + copy_cnt] = '\0';
 804a550:	8b 45 f4             	mov    -0xc(%ebp),%eax
 804a553:	8b 55 f0             	mov    -0x10(%ebp),%edx
 804a556:	8d 04 02             	lea    (%edx,%eax,1),%eax
 804a559:	03 45 08             	add    0x8(%ebp),%eax
 804a55c:	c6 00 00             	movb   $0x0,(%eax)
    }
  return src_len + dst_len;
 804a55f:	8b 45 f0             	mov    -0x10(%ebp),%eax
 804a562:	8b 55 ec             	mov    -0x14(%ebp),%edx
 804a565:	8d 04 02             	lea    (%edx,%eax,1),%eax
}
 804a568:	c9                   	leave  
 804a569:	c3                   	ret    
 804a56a:	90                   	nop
 804a56b:	90                   	nop

0804a56c <divl>:
   yield a 32-bit quotient.  Returns the quotient.
   Traps with a divide error (#DE) if the quotient does not fit
   in 32 bits. */
static inline uint32_t
divl (uint64_t n, uint32_t d)
{
 804a56c:	55                   	push   %ebp
 804a56d:	89 e5                	mov    %esp,%ebp
 804a56f:	83 ec 18             	sub    $0x18,%esp
 804a572:	8b 45 08             	mov    0x8(%ebp),%eax
 804a575:	89 45 e8             	mov    %eax,-0x18(%ebp)
 804a578:	8b 45 0c             	mov    0xc(%ebp),%eax
 804a57b:	89 45 ec             	mov    %eax,-0x14(%ebp)
  uint32_t n1 = n >> 32;
 804a57e:	8b 45 e8             	mov    -0x18(%ebp),%eax
 804a581:	8b 55 ec             	mov    -0x14(%ebp),%edx
 804a584:	89 d0                	mov    %edx,%eax
 804a586:	31 d2                	xor    %edx,%edx
 804a588:	89 45 f0             	mov    %eax,-0x10(%ebp)
  uint32_t n0 = n;
 804a58b:	8b 45 e8             	mov    -0x18(%ebp),%eax
 804a58e:	89 45 f4             	mov    %eax,-0xc(%ebp)
  uint32_t q, r;

  asm ("divl %4"
 804a591:	8b 55 f0             	mov    -0x10(%ebp),%edx
 804a594:	8b 45 f4             	mov    -0xc(%ebp),%eax
 804a597:	f7 75 10             	divl   0x10(%ebp)
 804a59a:	89 55 fc             	mov    %edx,-0x4(%ebp)
 804a59d:	89 45 f8             	mov    %eax,-0x8(%ebp)
       : "=d" (r), "=a" (q)
       : "0" (n1), "1" (n0), "rm" (d));

  return q;
 804a5a0:	8b 45 f8             	mov    -0x8(%ebp),%eax
}
 804a5a3:	c9                   	leave  
 804a5a4:	c3                   	ret    

0804a5a5 <nlz>:

/* Returns the number of leading zero bits in X,
   which must be nonzero. */
static int
nlz (uint32_t x) 
{
 804a5a5:	55                   	push   %ebp
 804a5a6:	89 e5                	mov    %esp,%ebp
 804a5a8:	83 ec 10             	sub    $0x10,%esp
  /* This technique is portable, but there are better ways to do
     it on particular systems.  With sufficiently new enough GCC,
     you can use __builtin_clz() to take advantage of GCC's
     knowledge of how to do it.  Or you can use the x86 BSR
     instruction directly. */
  int n = 0;
 804a5ab:	c7 45 fc 00 00 00 00 	movl   $0x0,-0x4(%ebp)
  if (x <= 0x0000FFFF)
 804a5b2:	81 7d 08 ff ff 00 00 	cmpl   $0xffff,0x8(%ebp)
 804a5b9:	77 08                	ja     804a5c3 <nlz+0x1e>
    {
      n += 16;
 804a5bb:	83 45 fc 10          	addl   $0x10,-0x4(%ebp)
      x <<= 16; 
 804a5bf:	c1 65 08 10          	shll   $0x10,0x8(%ebp)
    }
  if (x <= 0x00FFFFFF)
 804a5c3:	81 7d 08 ff ff ff 00 	cmpl   $0xffffff,0x8(%ebp)
 804a5ca:	77 08                	ja     804a5d4 <nlz+0x2f>
    {
      n += 8;
 804a5cc:	83 45 fc 08          	addl   $0x8,-0x4(%ebp)
      x <<= 8; 
 804a5d0:	c1 65 08 08          	shll   $0x8,0x8(%ebp)
    }
  if (x <= 0x0FFFFFFF)
 804a5d4:	81 7d 08 ff ff ff 0f 	cmpl   $0xfffffff,0x8(%ebp)
 804a5db:	77 08                	ja     804a5e5 <nlz+0x40>
    {
      n += 4;
 804a5dd:	83 45 fc 04          	addl   $0x4,-0x4(%ebp)
      x <<= 4;
 804a5e1:	c1 65 08 04          	shll   $0x4,0x8(%ebp)
    }
  if (x <= 0x3FFFFFFF)
 804a5e5:	81 7d 08 ff ff ff 3f 	cmpl   $0x3fffffff,0x8(%ebp)
 804a5ec:	77 08                	ja     804a5f6 <nlz+0x51>
    {
      n += 2;
 804a5ee:	83 45 fc 02          	addl   $0x2,-0x4(%ebp)
      x <<= 2; 
 804a5f2:	c1 65 08 02          	shll   $0x2,0x8(%ebp)
    }
  if (x <= 0x7FFFFFFF)
 804a5f6:	8b 45 08             	mov    0x8(%ebp),%eax
 804a5f9:	85 c0                	test   %eax,%eax
 804a5fb:	78 04                	js     804a601 <nlz+0x5c>
    n++;
 804a5fd:	83 45 fc 01          	addl   $0x1,-0x4(%ebp)
  return n;
 804a601:	8b 45 fc             	mov    -0x4(%ebp),%eax
}
 804a604:	c9                   	leave  
 804a605:	c3                   	ret    

0804a606 <udiv64>:

/* Divides unsigned 64-bit N by unsigned 64-bit D and returns the
   quotient. */
static uint64_t
udiv64 (uint64_t n, uint64_t d)
{
 804a606:	55                   	push   %ebp
 804a607:	89 e5                	mov    %esp,%ebp
 804a609:	57                   	push   %edi
 804a60a:	56                   	push   %esi
 804a60b:	53                   	push   %ebx
 804a60c:	83 ec 54             	sub    $0x54,%esp
 804a60f:	8b 45 08             	mov    0x8(%ebp),%eax
 804a612:	89 45 b8             	mov    %eax,-0x48(%ebp)
 804a615:	8b 45 0c             	mov    0xc(%ebp),%eax
 804a618:	89 45 bc             	mov    %eax,-0x44(%ebp)
 804a61b:	8b 45 10             	mov    0x10(%ebp),%eax
 804a61e:	89 45 b0             	mov    %eax,-0x50(%ebp)
 804a621:	8b 45 14             	mov    0x14(%ebp),%eax
 804a624:	89 45 b4             	mov    %eax,-0x4c(%ebp)
  if ((d >> 32) == 0) 
 804a627:	8b 45 b0             	mov    -0x50(%ebp),%eax
 804a62a:	8b 55 b4             	mov    -0x4c(%ebp),%edx
 804a62d:	89 d0                	mov    %edx,%eax
 804a62f:	31 d2                	xor    %edx,%edx
 804a631:	09 d0                	or     %edx,%eax
 804a633:	85 c0                	test   %eax,%eax
 804a635:	0f 85 a2 00 00 00    	jne    804a6dd <udiv64+0xd7>
             <=> [(bd - 1)/d] < b
             <=> [b - 1/d] < b
         which is a tautology.

         Therefore, this code is correct and will not trap. */
      uint64_t b = 1ULL << 32;
 804a63b:	c7 45 c8 00 00 00 00 	movl   $0x0,-0x38(%ebp)
 804a642:	c7 45 cc 01 00 00 00 	movl   $0x1,-0x34(%ebp)
      uint32_t n1 = n >> 32;
 804a649:	8b 45 b8             	mov    -0x48(%ebp),%eax
 804a64c:	8b 55 bc             	mov    -0x44(%ebp),%edx
 804a64f:	89 d0                	mov    %edx,%eax
 804a651:	31 d2                	xor    %edx,%edx
 804a653:	89 45 d4             	mov    %eax,-0x2c(%ebp)
      uint32_t n0 = n; 
 804a656:	8b 45 b8             	mov    -0x48(%ebp),%eax
 804a659:	89 45 d8             	mov    %eax,-0x28(%ebp)
      uint32_t d0 = d;
 804a65c:	8b 45 b0             	mov    -0x50(%ebp),%eax
 804a65f:	89 45 dc             	mov    %eax,-0x24(%ebp)

      return divl (b * (n1 % d0) + n0, d0) + b * (n1 / d0); 
 804a662:	8b 45 d4             	mov    -0x2c(%ebp),%eax
 804a665:	ba 00 00 00 00       	mov    $0x0,%edx
 804a66a:	f7 75 dc             	divl   -0x24(%ebp)
 804a66d:	89 d0                	mov    %edx,%eax
 804a66f:	ba 00 00 00 00       	mov    $0x0,%edx
 804a674:	8b 4d c8             	mov    -0x38(%ebp),%ecx
 804a677:	0f af ca             	imul   %edx,%ecx
 804a67a:	8b 5d cc             	mov    -0x34(%ebp),%ebx
 804a67d:	0f af d8             	imul   %eax,%ebx
 804a680:	01 d9                	add    %ebx,%ecx
 804a682:	f7 65 c8             	mull   -0x38(%ebp)
 804a685:	01 d1                	add    %edx,%ecx
 804a687:	89 ca                	mov    %ecx,%edx
 804a689:	8b 4d d8             	mov    -0x28(%ebp),%ecx
 804a68c:	bb 00 00 00 00       	mov    $0x0,%ebx
 804a691:	01 c8                	add    %ecx,%eax
 804a693:	11 da                	adc    %ebx,%edx
 804a695:	8b 4d dc             	mov    -0x24(%ebp),%ecx
 804a698:	89 4c 24 08          	mov    %ecx,0x8(%esp)
 804a69c:	89 04 24             	mov    %eax,(%esp)
 804a69f:	89 54 24 04          	mov    %edx,0x4(%esp)
 804a6a3:	e8 c4 fe ff ff       	call   804a56c <divl>
 804a6a8:	89 c1                	mov    %eax,%ecx
 804a6aa:	bb 00 00 00 00       	mov    $0x0,%ebx
 804a6af:	8b 45 d4             	mov    -0x2c(%ebp),%eax
 804a6b2:	ba 00 00 00 00       	mov    $0x0,%edx
 804a6b7:	f7 75 dc             	divl   -0x24(%ebp)
 804a6ba:	ba 00 00 00 00       	mov    $0x0,%edx
 804a6bf:	8b 75 c8             	mov    -0x38(%ebp),%esi
 804a6c2:	0f af f2             	imul   %edx,%esi
 804a6c5:	8b 7d cc             	mov    -0x34(%ebp),%edi
 804a6c8:	0f af f8             	imul   %eax,%edi
 804a6cb:	01 fe                	add    %edi,%esi
 804a6cd:	f7 65 c8             	mull   -0x38(%ebp)
 804a6d0:	01 d6                	add    %edx,%esi
 804a6d2:	89 f2                	mov    %esi,%edx
 804a6d4:	01 c8                	add    %ecx,%eax
 804a6d6:	11 da                	adc    %ebx,%edx
 804a6d8:	e9 eb 00 00 00       	jmp    804a7c8 <udiv64+0x1c2>
    }
  else 
    {
      /* Based on the algorithm and proof available from
         http://www.hackersdelight.org/revisions.pdf. */
      if (n < d)
 804a6dd:	8b 45 b8             	mov    -0x48(%ebp),%eax
 804a6e0:	8b 55 bc             	mov    -0x44(%ebp),%edx
 804a6e3:	3b 55 b4             	cmp    -0x4c(%ebp),%edx
 804a6e6:	77 19                	ja     804a701 <udiv64+0xfb>
 804a6e8:	3b 55 b4             	cmp    -0x4c(%ebp),%edx
 804a6eb:	72 05                	jb     804a6f2 <udiv64+0xec>
 804a6ed:	3b 45 b0             	cmp    -0x50(%ebp),%eax
 804a6f0:	73 0f                	jae    804a701 <udiv64+0xfb>
        return 0;
 804a6f2:	b8 00 00 00 00       	mov    $0x0,%eax
 804a6f7:	ba 00 00 00 00       	mov    $0x0,%edx
 804a6fc:	e9 c7 00 00 00       	jmp    804a7c8 <udiv64+0x1c2>
      else 
        {
          uint32_t d1 = d >> 32;
 804a701:	8b 45 b0             	mov    -0x50(%ebp),%eax
 804a704:	8b 55 b4             	mov    -0x4c(%ebp),%edx
 804a707:	89 d0                	mov    %edx,%eax
 804a709:	31 d2                	xor    %edx,%edx
 804a70b:	89 45 e0             	mov    %eax,-0x20(%ebp)
          int s = nlz (d1);
 804a70e:	8b 45 e0             	mov    -0x20(%ebp),%eax
 804a711:	89 04 24             	mov    %eax,(%esp)
 804a714:	e8 8c fe ff ff       	call   804a5a5 <nlz>
 804a719:	89 45 e4             	mov    %eax,-0x1c(%ebp)
          uint64_t q = divl (n >> 1, (d << s) >> 32) >> (31 - s);
 804a71c:	8b 4d e4             	mov    -0x1c(%ebp),%ecx
 804a71f:	8b 45 b0             	mov    -0x50(%ebp),%eax
 804a722:	8b 55 b4             	mov    -0x4c(%ebp),%edx
 804a725:	0f a5 c2             	shld   %cl,%eax,%edx
 804a728:	d3 e0                	shl    %cl,%eax
 804a72a:	f6 c1 20             	test   $0x20,%cl
 804a72d:	74 04                	je     804a733 <udiv64+0x12d>
 804a72f:	89 c2                	mov    %eax,%edx
 804a731:	31 c0                	xor    %eax,%eax
 804a733:	89 d0                	mov    %edx,%eax
 804a735:	31 d2                	xor    %edx,%edx
 804a737:	89 c1                	mov    %eax,%ecx
 804a739:	8b 45 b8             	mov    -0x48(%ebp),%eax
 804a73c:	8b 55 bc             	mov    -0x44(%ebp),%edx
 804a73f:	0f ac d0 01          	shrd   $0x1,%edx,%eax
 804a743:	d1 ea                	shr    %edx
 804a745:	89 4c 24 08          	mov    %ecx,0x8(%esp)
 804a749:	89 04 24             	mov    %eax,(%esp)
 804a74c:	89 54 24 04          	mov    %edx,0x4(%esp)
 804a750:	e8 17 fe ff ff       	call   804a56c <divl>
 804a755:	89 c2                	mov    %eax,%edx
 804a757:	b8 1f 00 00 00       	mov    $0x1f,%eax
 804a75c:	2b 45 e4             	sub    -0x1c(%ebp),%eax
 804a75f:	89 d3                	mov    %edx,%ebx
 804a761:	89 c1                	mov    %eax,%ecx
 804a763:	d3 eb                	shr    %cl,%ebx
 804a765:	89 d8                	mov    %ebx,%eax
 804a767:	ba 00 00 00 00       	mov    $0x0,%edx
 804a76c:	89 45 e8             	mov    %eax,-0x18(%ebp)
 804a76f:	89 55 ec             	mov    %edx,-0x14(%ebp)
          return n - (q - 1) * d < d ? q - 1 : q; 
 804a772:	8b 45 e8             	mov    -0x18(%ebp),%eax
 804a775:	8b 55 ec             	mov    -0x14(%ebp),%edx
 804a778:	83 c0 ff             	add    $0xffffffff,%eax
 804a77b:	83 d2 ff             	adc    $0xffffffff,%edx
 804a77e:	8b 4d b0             	mov    -0x50(%ebp),%ecx
 804a781:	0f af ca             	imul   %edx,%ecx
 804a784:	8b 5d b4             	mov    -0x4c(%ebp),%ebx
 804a787:	0f af d8             	imul   %eax,%ebx
 804a78a:	01 d9                	add    %ebx,%ecx
 804a78c:	f7 65 b0             	mull   -0x50(%ebp)
 804a78f:	01 d1                	add    %edx,%ecx
 804a791:	89 ca                	mov    %ecx,%edx
 804a793:	8b 4d b8             	mov    -0x48(%ebp),%ecx
 804a796:	8b 5d bc             	mov    -0x44(%ebp),%ebx
 804a799:	89 ce                	mov    %ecx,%esi
 804a79b:	89 df                	mov    %ebx,%edi
 804a79d:	29 c6                	sub    %eax,%esi
 804a79f:	19 d7                	sbb    %edx,%edi
 804a7a1:	89 f0                	mov    %esi,%eax
 804a7a3:	89 fa                	mov    %edi,%edx
 804a7a5:	3b 55 b4             	cmp    -0x4c(%ebp),%edx
 804a7a8:	77 18                	ja     804a7c2 <udiv64+0x1bc>
 804a7aa:	3b 55 b4             	cmp    -0x4c(%ebp),%edx
 804a7ad:	72 05                	jb     804a7b4 <udiv64+0x1ae>
 804a7af:	3b 45 b0             	cmp    -0x50(%ebp),%eax
 804a7b2:	73 0e                	jae    804a7c2 <udiv64+0x1bc>
 804a7b4:	8b 45 e8             	mov    -0x18(%ebp),%eax
 804a7b7:	8b 55 ec             	mov    -0x14(%ebp),%edx
 804a7ba:	83 c0 ff             	add    $0xffffffff,%eax
 804a7bd:	83 d2 ff             	adc    $0xffffffff,%edx
 804a7c0:	eb 06                	jmp    804a7c8 <udiv64+0x1c2>
 804a7c2:	8b 45 e8             	mov    -0x18(%ebp),%eax
 804a7c5:	8b 55 ec             	mov    -0x14(%ebp),%edx
        }
    }
}
 804a7c8:	83 c4 54             	add    $0x54,%esp
 804a7cb:	5b                   	pop    %ebx
 804a7cc:	5e                   	pop    %esi
 804a7cd:	5f                   	pop    %edi
 804a7ce:	5d                   	pop    %ebp
 804a7cf:	c3                   	ret    

0804a7d0 <umod64>:

/* Divides unsigned 64-bit N by unsigned 64-bit D and returns the
   remainder. */
static uint32_t
umod64 (uint64_t n, uint64_t d)
{
 804a7d0:	55                   	push   %ebp
 804a7d1:	89 e5                	mov    %esp,%ebp
 804a7d3:	53                   	push   %ebx
 804a7d4:	83 ec 24             	sub    $0x24,%esp
 804a7d7:	8b 45 08             	mov    0x8(%ebp),%eax
 804a7da:	89 45 f0             	mov    %eax,-0x10(%ebp)
 804a7dd:	8b 45 0c             	mov    0xc(%ebp),%eax
 804a7e0:	89 45 f4             	mov    %eax,-0xc(%ebp)
 804a7e3:	8b 45 10             	mov    0x10(%ebp),%eax
 804a7e6:	89 45 e8             	mov    %eax,-0x18(%ebp)
 804a7e9:	8b 45 14             	mov    0x14(%ebp),%eax
 804a7ec:	89 45 ec             	mov    %eax,-0x14(%ebp)
  return n - d * udiv64 (n, d);
 804a7ef:	8b 5d f0             	mov    -0x10(%ebp),%ebx
 804a7f2:	8b 45 e8             	mov    -0x18(%ebp),%eax
 804a7f5:	8b 55 ec             	mov    -0x14(%ebp),%edx
 804a7f8:	89 44 24 08          	mov    %eax,0x8(%esp)
 804a7fc:	89 54 24 0c          	mov    %edx,0xc(%esp)
 804a800:	8b 45 f0             	mov    -0x10(%ebp),%eax
 804a803:	8b 55 f4             	mov    -0xc(%ebp),%edx
 804a806:	89 04 24             	mov    %eax,(%esp)
 804a809:	89 54 24 04          	mov    %edx,0x4(%esp)
 804a80d:	e8 f4 fd ff ff       	call   804a606 <udiv64>
 804a812:	89 c2                	mov    %eax,%edx
 804a814:	8b 45 e8             	mov    -0x18(%ebp),%eax
 804a817:	0f af c2             	imul   %edx,%eax
 804a81a:	89 da                	mov    %ebx,%edx
 804a81c:	29 c2                	sub    %eax,%edx
 804a81e:	89 d0                	mov    %edx,%eax
}
 804a820:	83 c4 24             	add    $0x24,%esp
 804a823:	5b                   	pop    %ebx
 804a824:	5d                   	pop    %ebp
 804a825:	c3                   	ret    

0804a826 <sdiv64>:

/* Divides signed 64-bit N by signed 64-bit D and returns the
   quotient. */
static int64_t
sdiv64 (int64_t n, int64_t d)
{
 804a826:	55                   	push   %ebp
 804a827:	89 e5                	mov    %esp,%ebp
 804a829:	83 ec 40             	sub    $0x40,%esp
 804a82c:	8b 45 08             	mov    0x8(%ebp),%eax
 804a82f:	89 45 d8             	mov    %eax,-0x28(%ebp)
 804a832:	8b 45 0c             	mov    0xc(%ebp),%eax
 804a835:	89 45 dc             	mov    %eax,-0x24(%ebp)
 804a838:	8b 45 10             	mov    0x10(%ebp),%eax
 804a83b:	89 45 d0             	mov    %eax,-0x30(%ebp)
 804a83e:	8b 45 14             	mov    0x14(%ebp),%eax
 804a841:	89 45 d4             	mov    %eax,-0x2c(%ebp)
  uint64_t n_abs = n >= 0 ? (uint64_t) n : -(uint64_t) n;
 804a844:	83 7d dc 00          	cmpl   $0x0,-0x24(%ebp)
 804a848:	78 08                	js     804a852 <sdiv64+0x2c>
 804a84a:	8b 45 d8             	mov    -0x28(%ebp),%eax
 804a84d:	8b 55 dc             	mov    -0x24(%ebp),%edx
 804a850:	eb 0d                	jmp    804a85f <sdiv64+0x39>
 804a852:	8b 45 d8             	mov    -0x28(%ebp),%eax
 804a855:	8b 55 dc             	mov    -0x24(%ebp),%edx
 804a858:	f7 d8                	neg    %eax
 804a85a:	83 d2 00             	adc    $0x0,%edx
 804a85d:	f7 da                	neg    %edx
 804a85f:	89 45 e8             	mov    %eax,-0x18(%ebp)
 804a862:	89 55 ec             	mov    %edx,-0x14(%ebp)
  uint64_t d_abs = d >= 0 ? (uint64_t) d : -(uint64_t) d;
 804a865:	83 7d d4 00          	cmpl   $0x0,-0x2c(%ebp)
 804a869:	78 08                	js     804a873 <sdiv64+0x4d>
 804a86b:	8b 45 d0             	mov    -0x30(%ebp),%eax
 804a86e:	8b 55 d4             	mov    -0x2c(%ebp),%edx
 804a871:	eb 0d                	jmp    804a880 <sdiv64+0x5a>
 804a873:	8b 45 d0             	mov    -0x30(%ebp),%eax
 804a876:	8b 55 d4             	mov    -0x2c(%ebp),%edx
 804a879:	f7 d8                	neg    %eax
 804a87b:	83 d2 00             	adc    $0x0,%edx
 804a87e:	f7 da                	neg    %edx
 804a880:	89 45 f0             	mov    %eax,-0x10(%ebp)
 804a883:	89 55 f4             	mov    %edx,-0xc(%ebp)
  uint64_t q_abs = udiv64 (n_abs, d_abs);
 804a886:	8b 45 f0             	mov    -0x10(%ebp),%eax
 804a889:	8b 55 f4             	mov    -0xc(%ebp),%edx
 804a88c:	89 44 24 08          	mov    %eax,0x8(%esp)
 804a890:	89 54 24 0c          	mov    %edx,0xc(%esp)
 804a894:	8b 45 e8             	mov    -0x18(%ebp),%eax
 804a897:	8b 55 ec             	mov    -0x14(%ebp),%edx
 804a89a:	89 04 24             	mov    %eax,(%esp)
 804a89d:	89 54 24 04          	mov    %edx,0x4(%esp)
 804a8a1:	e8 60 fd ff ff       	call   804a606 <udiv64>
 804a8a6:	89 45 f8             	mov    %eax,-0x8(%ebp)
 804a8a9:	89 55 fc             	mov    %edx,-0x4(%ebp)
  return (n < 0) == (d < 0) ? (int64_t) q_abs : -(int64_t) q_abs;
 804a8ac:	8b 45 dc             	mov    -0x24(%ebp),%eax
 804a8af:	f7 d0                	not    %eax
 804a8b1:	c1 e8 1f             	shr    $0x1f,%eax
 804a8b4:	89 c2                	mov    %eax,%edx
 804a8b6:	8b 45 d4             	mov    -0x2c(%ebp),%eax
 804a8b9:	c1 e8 1f             	shr    $0x1f,%eax
 804a8bc:	31 d0                	xor    %edx,%eax
 804a8be:	84 c0                	test   %al,%al
 804a8c0:	74 08                	je     804a8ca <sdiv64+0xa4>
 804a8c2:	8b 45 f8             	mov    -0x8(%ebp),%eax
 804a8c5:	8b 55 fc             	mov    -0x4(%ebp),%edx
 804a8c8:	eb 0d                	jmp    804a8d7 <sdiv64+0xb1>
 804a8ca:	8b 45 f8             	mov    -0x8(%ebp),%eax
 804a8cd:	8b 55 fc             	mov    -0x4(%ebp),%edx
 804a8d0:	f7 d8                	neg    %eax
 804a8d2:	83 d2 00             	adc    $0x0,%edx
 804a8d5:	f7 da                	neg    %edx
}
 804a8d7:	c9                   	leave  
 804a8d8:	c3                   	ret    

0804a8d9 <smod64>:

/* Divides signed 64-bit N by signed 64-bit D and returns the
   remainder. */
static int32_t
smod64 (int64_t n, int64_t d)
{
 804a8d9:	55                   	push   %ebp
 804a8da:	89 e5                	mov    %esp,%ebp
 804a8dc:	53                   	push   %ebx
 804a8dd:	83 ec 24             	sub    $0x24,%esp
 804a8e0:	8b 45 08             	mov    0x8(%ebp),%eax
 804a8e3:	89 45 f0             	mov    %eax,-0x10(%ebp)
 804a8e6:	8b 45 0c             	mov    0xc(%ebp),%eax
 804a8e9:	89 45 f4             	mov    %eax,-0xc(%ebp)
 804a8ec:	8b 45 10             	mov    0x10(%ebp),%eax
 804a8ef:	89 45 e8             	mov    %eax,-0x18(%ebp)
 804a8f2:	8b 45 14             	mov    0x14(%ebp),%eax
 804a8f5:	89 45 ec             	mov    %eax,-0x14(%ebp)
  return n - d * sdiv64 (n, d);
 804a8f8:	8b 5d f0             	mov    -0x10(%ebp),%ebx
 804a8fb:	8b 45 e8             	mov    -0x18(%ebp),%eax
 804a8fe:	8b 55 ec             	mov    -0x14(%ebp),%edx
 804a901:	89 44 24 08          	mov    %eax,0x8(%esp)
 804a905:	89 54 24 0c          	mov    %edx,0xc(%esp)
 804a909:	8b 45 f0             	mov    -0x10(%ebp),%eax
 804a90c:	8b 55 f4             	mov    -0xc(%ebp),%edx
 804a90f:	89 04 24             	mov    %eax,(%esp)
 804a912:	89 54 24 04          	mov    %edx,0x4(%esp)
 804a916:	e8 0b ff ff ff       	call   804a826 <sdiv64>
 804a91b:	89 c2                	mov    %eax,%edx
 804a91d:	8b 45 e8             	mov    -0x18(%ebp),%eax
 804a920:	0f af c2             	imul   %edx,%eax
 804a923:	89 da                	mov    %ebx,%edx
 804a925:	29 c2                	sub    %eax,%edx
 804a927:	89 d0                	mov    %edx,%eax
}
 804a929:	83 c4 24             	add    $0x24,%esp
 804a92c:	5b                   	pop    %ebx
 804a92d:	5d                   	pop    %ebp
 804a92e:	c3                   	ret    

0804a92f <__divdi3>:
unsigned long long __umoddi3 (unsigned long long n, unsigned long long d);

/* Signed 64-bit division. */
long long
__divdi3 (long long n, long long d) 
{
 804a92f:	55                   	push   %ebp
 804a930:	89 e5                	mov    %esp,%ebp
 804a932:	83 ec 20             	sub    $0x20,%esp
 804a935:	8b 45 08             	mov    0x8(%ebp),%eax
 804a938:	89 45 f8             	mov    %eax,-0x8(%ebp)
 804a93b:	8b 45 0c             	mov    0xc(%ebp),%eax
 804a93e:	89 45 fc             	mov    %eax,-0x4(%ebp)
 804a941:	8b 45 10             	mov    0x10(%ebp),%eax
 804a944:	89 45 f0             	mov    %eax,-0x10(%ebp)
 804a947:	8b 45 14             	mov    0x14(%ebp),%eax
 804a94a:	89 45 f4             	mov    %eax,-0xc(%ebp)
  return sdiv64 (n, d);
 804a94d:	8b 45 f0             	mov    -0x10(%ebp),%eax
 804a950:	8b 55 f4             	mov    -0xc(%ebp),%edx
 804a953:	89 44 24 08          	mov    %eax,0x8(%esp)
 804a957:	89 54 24 0c          	mov    %edx,0xc(%esp)
 804a95b:	8b 45 f8             	mov    -0x8(%ebp),%eax
 804a95e:	8b 55 fc             	mov    -0x4(%ebp),%edx
 804a961:	89 04 24             	mov    %eax,(%esp)
 804a964:	89 54 24 04          	mov    %edx,0x4(%esp)
 804a968:	e8 b9 fe ff ff       	call   804a826 <sdiv64>
}
 804a96d:	c9                   	leave  
 804a96e:	c3                   	ret    

0804a96f <__moddi3>:

/* Signed 64-bit remainder. */
long long
__moddi3 (long long n, long long d) 
{
 804a96f:	55                   	push   %ebp
 804a970:	89 e5                	mov    %esp,%ebp
 804a972:	83 ec 20             	sub    $0x20,%esp
 804a975:	8b 45 08             	mov    0x8(%ebp),%eax
 804a978:	89 45 f8             	mov    %eax,-0x8(%ebp)
 804a97b:	8b 45 0c             	mov    0xc(%ebp),%eax
 804a97e:	89 45 fc             	mov    %eax,-0x4(%ebp)
 804a981:	8b 45 10             	mov    0x10(%ebp),%eax
 804a984:	89 45 f0             	mov    %eax,-0x10(%ebp)
 804a987:	8b 45 14             	mov    0x14(%ebp),%eax
 804a98a:	89 45 f4             	mov    %eax,-0xc(%ebp)
  return smod64 (n, d);
 804a98d:	8b 45 f0             	mov    -0x10(%ebp),%eax
 804a990:	8b 55 f4             	mov    -0xc(%ebp),%edx
 804a993:	89 44 24 08          	mov    %eax,0x8(%esp)
 804a997:	89 54 24 0c          	mov    %edx,0xc(%esp)
 804a99b:	8b 45 f8             	mov    -0x8(%ebp),%eax
 804a99e:	8b 55 fc             	mov    -0x4(%ebp),%edx
 804a9a1:	89 04 24             	mov    %eax,(%esp)
 804a9a4:	89 54 24 04          	mov    %edx,0x4(%esp)
 804a9a8:	e8 2c ff ff ff       	call   804a8d9 <smod64>
 804a9ad:	89 c2                	mov    %eax,%edx
 804a9af:	c1 fa 1f             	sar    $0x1f,%edx
}
 804a9b2:	c9                   	leave  
 804a9b3:	c3                   	ret    

0804a9b4 <__udivdi3>:

/* Unsigned 64-bit division. */
unsigned long long
__udivdi3 (unsigned long long n, unsigned long long d) 
{
 804a9b4:	55                   	push   %ebp
 804a9b5:	89 e5                	mov    %esp,%ebp
 804a9b7:	83 ec 20             	sub    $0x20,%esp
 804a9ba:	8b 45 08             	mov    0x8(%ebp),%eax
 804a9bd:	89 45 f8             	mov    %eax,-0x8(%ebp)
 804a9c0:	8b 45 0c             	mov    0xc(%ebp),%eax
 804a9c3:	89 45 fc             	mov    %eax,-0x4(%ebp)
 804a9c6:	8b 45 10             	mov    0x10(%ebp),%eax
 804a9c9:	89 45 f0             	mov    %eax,-0x10(%ebp)
 804a9cc:	8b 45 14             	mov    0x14(%ebp),%eax
 804a9cf:	89 45 f4             	mov    %eax,-0xc(%ebp)
  return udiv64 (n, d);
 804a9d2:	8b 45 f0             	mov    -0x10(%ebp),%eax
 804a9d5:	8b 55 f4             	mov    -0xc(%ebp),%edx
 804a9d8:	89 44 24 08          	mov    %eax,0x8(%esp)
 804a9dc:	89 54 24 0c          	mov    %edx,0xc(%esp)
 804a9e0:	8b 45 f8             	mov    -0x8(%ebp),%eax
 804a9e3:	8b 55 fc             	mov    -0x4(%ebp),%edx
 804a9e6:	89 04 24             	mov    %eax,(%esp)
 804a9e9:	89 54 24 04          	mov    %edx,0x4(%esp)
 804a9ed:	e8 14 fc ff ff       	call   804a606 <udiv64>
}
 804a9f2:	c9                   	leave  
 804a9f3:	c3                   	ret    

0804a9f4 <__umoddi3>:

/* Unsigned 64-bit remainder. */
unsigned long long
__umoddi3 (unsigned long long n, unsigned long long d) 
{
 804a9f4:	55                   	push   %ebp
 804a9f5:	89 e5                	mov    %esp,%ebp
 804a9f7:	83 ec 20             	sub    $0x20,%esp
 804a9fa:	8b 45 08             	mov    0x8(%ebp),%eax
 804a9fd:	89 45 f8             	mov    %eax,-0x8(%ebp)
 804aa00:	8b 45 0c             	mov    0xc(%ebp),%eax
 804aa03:	89 45 fc             	mov    %eax,-0x4(%ebp)
 804aa06:	8b 45 10             	mov    0x10(%ebp),%eax
 804aa09:	89 45 f0             	mov    %eax,-0x10(%ebp)
 804aa0c:	8b 45 14             	mov    0x14(%ebp),%eax
 804aa0f:	89 45 f4             	mov    %eax,-0xc(%ebp)
  return umod64 (n, d);
 804aa12:	8b 45 f0             	mov    -0x10(%ebp),%eax
 804aa15:	8b 55 f4             	mov    -0xc(%ebp),%edx
 804aa18:	89 44 24 08          	mov    %eax,0x8(%esp)
 804aa1c:	89 54 24 0c          	mov    %edx,0xc(%esp)
 804aa20:	8b 45 f8             	mov    -0x8(%ebp),%eax
 804aa23:	8b 55 fc             	mov    -0x4(%ebp),%edx
 804aa26:	89 04 24             	mov    %eax,(%esp)
 804aa29:	89 54 24 04          	mov    %edx,0x4(%esp)
 804aa2d:	e8 9e fd ff ff       	call   804a7d0 <umod64>
 804aa32:	ba 00 00 00 00       	mov    $0x0,%edx
}
 804aa37:	c9                   	leave  
 804aa38:	c3                   	ret    
 804aa39:	90                   	nop
 804aa3a:	90                   	nop
 804aa3b:	90                   	nop

0804aa3c <debug_panic>:
/* Aborts the user program, printing the source file name, line
   number, and function name, plus a user-specific message. */
void
debug_panic (const char *file, int line, const char *function,
             const char *message, ...)
{
 804aa3c:	55                   	push   %ebp
 804aa3d:	89 e5                	mov    %esp,%ebp
 804aa3f:	83 ec 28             	sub    $0x28,%esp
  va_list args;

  printf ("User process ABORT at %s:%d in %s(): ", file, line, function);
 804aa42:	8b 45 10             	mov    0x10(%ebp),%eax
 804aa45:	89 44 24 0c          	mov    %eax,0xc(%esp)
 804aa49:	8b 45 0c             	mov    0xc(%ebp),%eax
 804aa4c:	89 44 24 08          	mov    %eax,0x8(%esp)
 804aa50:	8b 45 08             	mov    0x8(%ebp),%eax
 804aa53:	89 44 24 04          	mov    %eax,0x4(%esp)
 804aa57:	c7 04 24 10 b5 04 08 	movl   $0x804b510,(%esp)
 804aa5e:	e8 33 e3 ff ff       	call   8048d96 <printf>

  va_start (args, message);
 804aa63:	8d 45 18             	lea    0x18(%ebp),%eax
 804aa66:	89 45 f4             	mov    %eax,-0xc(%ebp)
  vprintf (message, args);
 804aa69:	8b 45 f4             	mov    -0xc(%ebp),%eax
 804aa6c:	89 44 24 04          	mov    %eax,0x4(%esp)
 804aa70:	8b 45 14             	mov    0x14(%ebp),%eax
 804aa73:	89 04 24             	mov    %eax,(%esp)
 804aa76:	e8 65 02 00 00       	call   804ace0 <vprintf>
  printf ("\n");
 804aa7b:	c7 04 24 0a 00 00 00 	movl   $0xa,(%esp)
 804aa82:	e8 e3 02 00 00       	call   804ad6a <putchar>
  va_end (args);

  debug_backtrace ();
 804aa87:	e8 f4 03 00 00       	call   804ae80 <debug_backtrace>
  
  exit (1);
 804aa8c:	c7 04 24 01 00 00 00 	movl   $0x1,(%esp)
 804aa93:	e8 34 00 00 00       	call   804aacc <exit>

0804aa98 <halt>:
          retval;                                               \
        })

void
halt (void) 
{
 804aa98:	55                   	push   %ebp
 804aa99:	89 e5                	mov    %esp,%ebp
 804aa9b:	83 ec 28             	sub    $0x28,%esp
  syscall0 (SYS_HALT);
 804aa9e:	6a 00                	push   $0x0
 804aaa0:	cd 30                	int    $0x30
 804aaa2:	83 c4 04             	add    $0x4,%esp
 804aaa5:	89 45 f4             	mov    %eax,-0xc(%ebp)
  NOT_REACHED ();
 804aaa8:	c7 44 24 0c 38 b5 04 	movl   $0x804b538,0xc(%esp)
 804aaaf:	08 
 804aab0:	c7 44 24 08 78 b5 04 	movl   $0x804b578,0x8(%esp)
 804aab7:	08 
 804aab8:	c7 44 24 04 44 00 00 	movl   $0x44,0x4(%esp)
 804aabf:	00 
 804aac0:	c7 04 24 5a b5 04 08 	movl   $0x804b55a,(%esp)
 804aac7:	e8 70 ff ff ff       	call   804aa3c <debug_panic>

0804aacc <exit>:
}

void
exit (int status)
{
  syscall1 (SYS_EXIT, status);
 804aacc:	55                   	push   %ebp
 804aacd:	89 e5                	mov    %esp,%ebp
 804aacf:	83 ec 28             	sub    $0x28,%esp
 804aad2:	ff 75 08             	pushl  0x8(%ebp)
 804aad5:	6a 01                	push   $0x1
 804aad7:	cd 30                	int    $0x30
 804aad9:	83 c4 08             	add    $0x8,%esp
 804aadc:	89 45 f4             	mov    %eax,-0xc(%ebp)
  NOT_REACHED ();
 804aadf:	c7 44 24 0c 38 b5 04 	movl   $0x804b538,0xc(%esp)
 804aae6:	08 
 804aae7:	c7 44 24 08 73 b5 04 	movl   $0x804b573,0x8(%esp)
 804aaee:	08 
 804aaef:	c7 44 24 04 4b 00 00 	movl   $0x4b,0x4(%esp)
 804aaf6:	00 
 804aaf7:	c7 04 24 5a b5 04 08 	movl   $0x804b55a,(%esp)
 804aafe:	e8 39 ff ff ff       	call   804aa3c <debug_panic>

0804ab03 <exec>:
}

pid_t
exec (const char *file)
{
 804ab03:	55                   	push   %ebp
 804ab04:	89 e5                	mov    %esp,%ebp
 804ab06:	83 ec 10             	sub    $0x10,%esp
  return (pid_t) syscall1 (SYS_EXEC, file);
 804ab09:	ff 75 08             	pushl  0x8(%ebp)
 804ab0c:	6a 02                	push   $0x2
 804ab0e:	cd 30                	int    $0x30
 804ab10:	83 c4 08             	add    $0x8,%esp
 804ab13:	89 45 fc             	mov    %eax,-0x4(%ebp)
 804ab16:	8b 45 fc             	mov    -0x4(%ebp),%eax
}
 804ab19:	c9                   	leave  
 804ab1a:	c3                   	ret    

0804ab1b <wait>:

int
wait (pid_t pid)
{
 804ab1b:	55                   	push   %ebp
 804ab1c:	89 e5                	mov    %esp,%ebp
 804ab1e:	83 ec 10             	sub    $0x10,%esp
  return syscall1 (SYS_WAIT, pid);
 804ab21:	ff 75 08             	pushl  0x8(%ebp)
 804ab24:	6a 03                	push   $0x3
 804ab26:	cd 30                	int    $0x30
 804ab28:	83 c4 08             	add    $0x8,%esp
 804ab2b:	89 45 fc             	mov    %eax,-0x4(%ebp)
 804ab2e:	8b 45 fc             	mov    -0x4(%ebp),%eax
}
 804ab31:	c9                   	leave  
 804ab32:	c3                   	ret    

0804ab33 <create>:

bool
create (const char *file, unsigned initial_size)
{
 804ab33:	55                   	push   %ebp
 804ab34:	89 e5                	mov    %esp,%ebp
 804ab36:	83 ec 10             	sub    $0x10,%esp
  return syscall2 (SYS_CREATE, file, initial_size);
 804ab39:	ff 75 0c             	pushl  0xc(%ebp)
 804ab3c:	ff 75 08             	pushl  0x8(%ebp)
 804ab3f:	6a 04                	push   $0x4
 804ab41:	cd 30                	int    $0x30
 804ab43:	83 c4 0c             	add    $0xc,%esp
 804ab46:	89 45 fc             	mov    %eax,-0x4(%ebp)
 804ab49:	8b 45 fc             	mov    -0x4(%ebp),%eax
 804ab4c:	85 c0                	test   %eax,%eax
 804ab4e:	0f 95 c0             	setne  %al
}
 804ab51:	c9                   	leave  
 804ab52:	c3                   	ret    

0804ab53 <remove>:

bool
remove (const char *file)
{
 804ab53:	55                   	push   %ebp
 804ab54:	89 e5                	mov    %esp,%ebp
 804ab56:	83 ec 10             	sub    $0x10,%esp
  return syscall1 (SYS_REMOVE, file);
 804ab59:	ff 75 08             	pushl  0x8(%ebp)
 804ab5c:	6a 05                	push   $0x5
 804ab5e:	cd 30                	int    $0x30
 804ab60:	83 c4 08             	add    $0x8,%esp
 804ab63:	89 45 fc             	mov    %eax,-0x4(%ebp)
 804ab66:	8b 45 fc             	mov    -0x4(%ebp),%eax
 804ab69:	85 c0                	test   %eax,%eax
 804ab6b:	0f 95 c0             	setne  %al
}
 804ab6e:	c9                   	leave  
 804ab6f:	c3                   	ret    

0804ab70 <open>:

int
open (const char *file)
{
 804ab70:	55                   	push   %ebp
 804ab71:	89 e5                	mov    %esp,%ebp
 804ab73:	83 ec 10             	sub    $0x10,%esp
  return syscall1 (SYS_OPEN, file);
 804ab76:	ff 75 08             	pushl  0x8(%ebp)
 804ab79:	6a 06                	push   $0x6
 804ab7b:	cd 30                	int    $0x30
 804ab7d:	83 c4 08             	add    $0x8,%esp
 804ab80:	89 45 fc             	mov    %eax,-0x4(%ebp)
 804ab83:	8b 45 fc             	mov    -0x4(%ebp),%eax
}
 804ab86:	c9                   	leave  
 804ab87:	c3                   	ret    

0804ab88 <filesize>:

int
filesize (int fd) 
{
 804ab88:	55                   	push   %ebp
 804ab89:	89 e5                	mov    %esp,%ebp
 804ab8b:	83 ec 10             	sub    $0x10,%esp
  return syscall1 (SYS_FILESIZE, fd);
 804ab8e:	ff 75 08             	pushl  0x8(%ebp)
 804ab91:	6a 07                	push   $0x7
 804ab93:	cd 30                	int    $0x30
 804ab95:	83 c4 08             	add    $0x8,%esp
 804ab98:	89 45 fc             	mov    %eax,-0x4(%ebp)
 804ab9b:	8b 45 fc             	mov    -0x4(%ebp),%eax
}
 804ab9e:	c9                   	leave  
 804ab9f:	c3                   	ret    

0804aba0 <read>:

int
read (int fd, void *buffer, unsigned size)
{
 804aba0:	55                   	push   %ebp
 804aba1:	89 e5                	mov    %esp,%ebp
 804aba3:	83 ec 10             	sub    $0x10,%esp
  return syscall3 (SYS_READ, fd, buffer, size);
 804aba6:	ff 75 10             	pushl  0x10(%ebp)
 804aba9:	ff 75 0c             	pushl  0xc(%ebp)
 804abac:	ff 75 08             	pushl  0x8(%ebp)
 804abaf:	6a 08                	push   $0x8
 804abb1:	cd 30                	int    $0x30
 804abb3:	83 c4 10             	add    $0x10,%esp
 804abb6:	89 45 fc             	mov    %eax,-0x4(%ebp)
 804abb9:	8b 45 fc             	mov    -0x4(%ebp),%eax
}
 804abbc:	c9                   	leave  
 804abbd:	c3                   	ret    

0804abbe <write>:

int
write (int fd, const void *buffer, unsigned size)
{
 804abbe:	55                   	push   %ebp
 804abbf:	89 e5                	mov    %esp,%ebp
 804abc1:	83 ec 10             	sub    $0x10,%esp
  return syscall3 (SYS_WRITE, fd, buffer, size);
 804abc4:	ff 75 10             	pushl  0x10(%ebp)
 804abc7:	ff 75 0c             	pushl  0xc(%ebp)
 804abca:	ff 75 08             	pushl  0x8(%ebp)
 804abcd:	6a 09                	push   $0x9
 804abcf:	cd 30                	int    $0x30
 804abd1:	83 c4 10             	add    $0x10,%esp
 804abd4:	89 45 fc             	mov    %eax,-0x4(%ebp)
 804abd7:	8b 45 fc             	mov    -0x4(%ebp),%eax
}
 804abda:	c9                   	leave  
 804abdb:	c3                   	ret    

0804abdc <seek>:

void
seek (int fd, unsigned position) 
{
 804abdc:	55                   	push   %ebp
 804abdd:	89 e5                	mov    %esp,%ebp
 804abdf:	83 ec 10             	sub    $0x10,%esp
  syscall2 (SYS_SEEK, fd, position);
 804abe2:	ff 75 0c             	pushl  0xc(%ebp)
 804abe5:	ff 75 08             	pushl  0x8(%ebp)
 804abe8:	6a 0a                	push   $0xa
 804abea:	cd 30                	int    $0x30
 804abec:	83 c4 0c             	add    $0xc,%esp
 804abef:	89 45 fc             	mov    %eax,-0x4(%ebp)
}
 804abf2:	c9                   	leave  
 804abf3:	c3                   	ret    

0804abf4 <tell>:

unsigned
tell (int fd) 
{
 804abf4:	55                   	push   %ebp
 804abf5:	89 e5                	mov    %esp,%ebp
 804abf7:	83 ec 10             	sub    $0x10,%esp
  return syscall1 (SYS_TELL, fd);
 804abfa:	ff 75 08             	pushl  0x8(%ebp)
 804abfd:	6a 0b                	push   $0xb
 804abff:	cd 30                	int    $0x30
 804ac01:	83 c4 08             	add    $0x8,%esp
 804ac04:	89 45 fc             	mov    %eax,-0x4(%ebp)
 804ac07:	8b 45 fc             	mov    -0x4(%ebp),%eax
}
 804ac0a:	c9                   	leave  
 804ac0b:	c3                   	ret    

0804ac0c <close>:

void
close (int fd)
{
 804ac0c:	55                   	push   %ebp
 804ac0d:	89 e5                	mov    %esp,%ebp
 804ac0f:	83 ec 10             	sub    $0x10,%esp
  syscall1 (SYS_CLOSE, fd);
 804ac12:	ff 75 08             	pushl  0x8(%ebp)
 804ac15:	6a 0c                	push   $0xc
 804ac17:	cd 30                	int    $0x30
 804ac19:	83 c4 08             	add    $0x8,%esp
 804ac1c:	89 45 fc             	mov    %eax,-0x4(%ebp)
}
 804ac1f:	c9                   	leave  
 804ac20:	c3                   	ret    

0804ac21 <mmap>:

mapid_t
mmap (int fd, void *addr)
{
 804ac21:	55                   	push   %ebp
 804ac22:	89 e5                	mov    %esp,%ebp
 804ac24:	83 ec 10             	sub    $0x10,%esp
  return syscall2 (SYS_MMAP, fd, addr);
 804ac27:	ff 75 0c             	pushl  0xc(%ebp)
 804ac2a:	ff 75 08             	pushl  0x8(%ebp)
 804ac2d:	6a 0d                	push   $0xd
 804ac2f:	cd 30                	int    $0x30
 804ac31:	83 c4 0c             	add    $0xc,%esp
 804ac34:	89 45 fc             	mov    %eax,-0x4(%ebp)
 804ac37:	8b 45 fc             	mov    -0x4(%ebp),%eax
}
 804ac3a:	c9                   	leave  
 804ac3b:	c3                   	ret    

0804ac3c <munmap>:

void
munmap (mapid_t mapid)
{
 804ac3c:	55                   	push   %ebp
 804ac3d:	89 e5                	mov    %esp,%ebp
 804ac3f:	83 ec 10             	sub    $0x10,%esp
  syscall1 (SYS_MUNMAP, mapid);
 804ac42:	ff 75 08             	pushl  0x8(%ebp)
 804ac45:	6a 0e                	push   $0xe
 804ac47:	cd 30                	int    $0x30
 804ac49:	83 c4 08             	add    $0x8,%esp
 804ac4c:	89 45 fc             	mov    %eax,-0x4(%ebp)
}
 804ac4f:	c9                   	leave  
 804ac50:	c3                   	ret    

0804ac51 <chdir>:

bool
chdir (const char *dir)
{
 804ac51:	55                   	push   %ebp
 804ac52:	89 e5                	mov    %esp,%ebp
 804ac54:	83 ec 10             	sub    $0x10,%esp
  return syscall1 (SYS_CHDIR, dir);
 804ac57:	ff 75 08             	pushl  0x8(%ebp)
 804ac5a:	6a 0f                	push   $0xf
 804ac5c:	cd 30                	int    $0x30
 804ac5e:	83 c4 08             	add    $0x8,%esp
 804ac61:	89 45 fc             	mov    %eax,-0x4(%ebp)
 804ac64:	8b 45 fc             	mov    -0x4(%ebp),%eax
 804ac67:	85 c0                	test   %eax,%eax
 804ac69:	0f 95 c0             	setne  %al
}
 804ac6c:	c9                   	leave  
 804ac6d:	c3                   	ret    

0804ac6e <mkdir>:

bool
mkdir (const char *dir)
{
 804ac6e:	55                   	push   %ebp
 804ac6f:	89 e5                	mov    %esp,%ebp
 804ac71:	83 ec 10             	sub    $0x10,%esp
  return syscall1 (SYS_MKDIR, dir);
 804ac74:	ff 75 08             	pushl  0x8(%ebp)
 804ac77:	6a 10                	push   $0x10
 804ac79:	cd 30                	int    $0x30
 804ac7b:	83 c4 08             	add    $0x8,%esp
 804ac7e:	89 45 fc             	mov    %eax,-0x4(%ebp)
 804ac81:	8b 45 fc             	mov    -0x4(%ebp),%eax
 804ac84:	85 c0                	test   %eax,%eax
 804ac86:	0f 95 c0             	setne  %al
}
 804ac89:	c9                   	leave  
 804ac8a:	c3                   	ret    

0804ac8b <readdir>:

bool
readdir (int fd, char name[READDIR_MAX_LEN + 1]) 
{
 804ac8b:	55                   	push   %ebp
 804ac8c:	89 e5                	mov    %esp,%ebp
 804ac8e:	83 ec 10             	sub    $0x10,%esp
  return syscall2 (SYS_READDIR, fd, name);
 804ac91:	ff 75 0c             	pushl  0xc(%ebp)
 804ac94:	ff 75 08             	pushl  0x8(%ebp)
 804ac97:	6a 11                	push   $0x11
 804ac99:	cd 30                	int    $0x30
 804ac9b:	83 c4 0c             	add    $0xc,%esp
 804ac9e:	89 45 fc             	mov    %eax,-0x4(%ebp)
 804aca1:	8b 45 fc             	mov    -0x4(%ebp),%eax
 804aca4:	85 c0                	test   %eax,%eax
 804aca6:	0f 95 c0             	setne  %al
}
 804aca9:	c9                   	leave  
 804acaa:	c3                   	ret    

0804acab <isdir>:

bool
isdir (int fd) 
{
 804acab:	55                   	push   %ebp
 804acac:	89 e5                	mov    %esp,%ebp
 804acae:	83 ec 10             	sub    $0x10,%esp
  return syscall1 (SYS_ISDIR, fd);
 804acb1:	ff 75 08             	pushl  0x8(%ebp)
 804acb4:	6a 12                	push   $0x12
 804acb6:	cd 30                	int    $0x30
 804acb8:	83 c4 08             	add    $0x8,%esp
 804acbb:	89 45 fc             	mov    %eax,-0x4(%ebp)
 804acbe:	8b 45 fc             	mov    -0x4(%ebp),%eax
 804acc1:	85 c0                	test   %eax,%eax
 804acc3:	0f 95 c0             	setne  %al
}
 804acc6:	c9                   	leave  
 804acc7:	c3                   	ret    

0804acc8 <inumber>:

int
inumber (int fd) 
{
 804acc8:	55                   	push   %ebp
 804acc9:	89 e5                	mov    %esp,%ebp
 804accb:	83 ec 10             	sub    $0x10,%esp
  return syscall1 (SYS_INUMBER, fd);
 804acce:	ff 75 08             	pushl  0x8(%ebp)
 804acd1:	6a 13                	push   $0x13
 804acd3:	cd 30                	int    $0x30
 804acd5:	83 c4 08             	add    $0x8,%esp
 804acd8:	89 45 fc             	mov    %eax,-0x4(%ebp)
 804acdb:	8b 45 fc             	mov    -0x4(%ebp),%eax
}
 804acde:	c9                   	leave  
 804acdf:	c3                   	ret    

0804ace0 <vprintf>:
/* The standard vprintf() function,
   which is like printf() but uses a va_list. */
int
vprintf (const char *format, va_list args) 
{
  return vhprintf (STDOUT_FILENO, format, args);
 804ace0:	55                   	push   %ebp
 804ace1:	89 e5                	mov    %esp,%ebp
 804ace3:	83 ec 18             	sub    $0x18,%esp
 804ace6:	8b 45 0c             	mov    0xc(%ebp),%eax
 804ace9:	89 44 24 08          	mov    %eax,0x8(%esp)
 804aced:	8b 45 08             	mov    0x8(%ebp),%eax
 804acf0:	89 44 24 04          	mov    %eax,0x4(%esp)
 804acf4:	c7 04 24 01 00 00 00 	movl   $0x1,(%esp)
 804acfb:	e8 96 00 00 00       	call   804ad96 <vhprintf>
}
 804ad00:	c9                   	leave  
 804ad01:	c3                   	ret    

0804ad02 <hprintf>:

/* Like printf(), but writes output to the given HANDLE. */
int
hprintf (int handle, const char *format, ...) 
{
 804ad02:	55                   	push   %ebp
 804ad03:	89 e5                	mov    %esp,%ebp
 804ad05:	83 ec 28             	sub    $0x28,%esp
  va_list args;
  int retval;

  va_start (args, format);
 804ad08:	8d 45 10             	lea    0x10(%ebp),%eax
 804ad0b:	89 45 f0             	mov    %eax,-0x10(%ebp)
  retval = vhprintf (handle, format, args);
 804ad0e:	8b 45 f0             	mov    -0x10(%ebp),%eax
 804ad11:	89 44 24 08          	mov    %eax,0x8(%esp)
 804ad15:	8b 45 0c             	mov    0xc(%ebp),%eax
 804ad18:	89 44 24 04          	mov    %eax,0x4(%esp)
 804ad1c:	8b 45 08             	mov    0x8(%ebp),%eax
 804ad1f:	89 04 24             	mov    %eax,(%esp)
 804ad22:	e8 6f 00 00 00       	call   804ad96 <vhprintf>
 804ad27:	89 45 f4             	mov    %eax,-0xc(%ebp)
  va_end (args);

  return retval;
 804ad2a:	8b 45 f4             	mov    -0xc(%ebp),%eax
}
 804ad2d:	c9                   	leave  
 804ad2e:	c3                   	ret    

0804ad2f <puts>:
/* Writes string S to the console, followed by a new-line
   character. */
int
puts (const char *s) 
{
  write (STDOUT_FILENO, s, strlen (s));
 804ad2f:	55                   	push   %ebp
 804ad30:	89 e5                	mov    %esp,%ebp
 804ad32:	83 ec 18             	sub    $0x18,%esp
 804ad35:	8b 45 08             	mov    0x8(%ebp),%eax
 804ad38:	89 04 24             	mov    %eax,(%esp)
 804ad3b:	e8 e8 f5 ff ff       	call   804a328 <strlen>
 804ad40:	89 44 24 08          	mov    %eax,0x8(%esp)
 804ad44:	8b 45 08             	mov    0x8(%ebp),%eax
 804ad47:	89 44 24 04          	mov    %eax,0x4(%esp)
 804ad4b:	c7 04 24 01 00 00 00 	movl   $0x1,(%esp)
 804ad52:	e8 67 fe ff ff       	call   804abbe <write>
  putchar ('\n');
 804ad57:	c7 04 24 0a 00 00 00 	movl   $0xa,(%esp)
 804ad5e:	e8 07 00 00 00       	call   804ad6a <putchar>

  return 0;
 804ad63:	b8 00 00 00 00       	mov    $0x0,%eax
}
 804ad68:	c9                   	leave  
 804ad69:	c3                   	ret    

0804ad6a <putchar>:

/* Writes C to the console. */
int
putchar (int c) 
{
  char c2 = c;
 804ad6a:	55                   	push   %ebp
 804ad6b:	89 e5                	mov    %esp,%ebp
 804ad6d:	83 ec 28             	sub    $0x28,%esp
 804ad70:	8b 45 08             	mov    0x8(%ebp),%eax
 804ad73:	88 45 f7             	mov    %al,-0x9(%ebp)
  write (STDOUT_FILENO, &c2, 1);
 804ad76:	c7 44 24 08 01 00 00 	movl   $0x1,0x8(%esp)
 804ad7d:	00 
 804ad7e:	8d 45 f7             	lea    -0x9(%ebp),%eax
 804ad81:	89 44 24 04          	mov    %eax,0x4(%esp)
 804ad85:	c7 04 24 01 00 00 00 	movl   $0x1,(%esp)
 804ad8c:	e8 2d fe ff ff       	call   804abbe <write>
  return c;
 804ad91:	8b 45 08             	mov    0x8(%ebp),%eax
}
 804ad94:	c9                   	leave  
 804ad95:	c3                   	ret    

0804ad96 <vhprintf>:
/* Formats the printf() format specification FORMAT with
   arguments given in ARGS and writes the output to the given
   HANDLE. */
int
vhprintf (int handle, const char *format, va_list args) 
{
 804ad96:	55                   	push   %ebp
 804ad97:	89 e5                	mov    %esp,%ebp
 804ad99:	83 ec 68             	sub    $0x68,%esp
  struct vhprintf_aux aux;
  aux.p = aux.buf;
 804ad9c:	8d 45 ac             	lea    -0x54(%ebp),%eax
 804ad9f:	89 45 ec             	mov    %eax,-0x14(%ebp)
  aux.char_cnt = 0;
 804ada2:	c7 45 f0 00 00 00 00 	movl   $0x0,-0x10(%ebp)
  aux.handle = handle;
 804ada9:	8b 45 08             	mov    0x8(%ebp),%eax
 804adac:	89 45 f4             	mov    %eax,-0xc(%ebp)
  __vprintf (format, args, add_char, &aux);
 804adaf:	8d 45 ac             	lea    -0x54(%ebp),%eax
 804adb2:	89 44 24 0c          	mov    %eax,0xc(%esp)
 804adb6:	c7 44 24 08 e0 ad 04 	movl   $0x804ade0,0x8(%esp)
 804adbd:	08 
 804adbe:	8b 45 10             	mov    0x10(%ebp),%eax
 804adc1:	89 44 24 04          	mov    %eax,0x4(%esp)
 804adc5:	8b 45 0c             	mov    0xc(%ebp),%eax
 804adc8:	89 04 24             	mov    %eax,(%esp)
 804adcb:	e8 ec df ff ff       	call   8048dbc <__vprintf>
  flush (&aux);
 804add0:	8d 45 ac             	lea    -0x54(%ebp),%eax
 804add3:	89 04 24             	mov    %eax,(%esp)
 804add6:	e8 58 00 00 00       	call   804ae33 <flush>
  return aux.char_cnt;
 804addb:	8b 45 f0             	mov    -0x10(%ebp),%eax
}
 804adde:	c9                   	leave  
 804addf:	c3                   	ret    

0804ade0 <add_char>:

/* Adds C to the buffer in AUX, flushing it if the buffer fills
   up. */
static void
add_char (char c, void *aux_) 
{
 804ade0:	55                   	push   %ebp
 804ade1:	89 e5                	mov    %esp,%ebp
 804ade3:	83 ec 38             	sub    $0x38,%esp
 804ade6:	8b 45 08             	mov    0x8(%ebp),%eax
 804ade9:	88 45 e4             	mov    %al,-0x1c(%ebp)
  struct vhprintf_aux *aux = aux_;
 804adec:	8b 45 0c             	mov    0xc(%ebp),%eax
 804adef:	89 45 f4             	mov    %eax,-0xc(%ebp)
  *aux->p++ = c;
 804adf2:	8b 45 f4             	mov    -0xc(%ebp),%eax
 804adf5:	8b 40 40             	mov    0x40(%eax),%eax
 804adf8:	0f b6 55 e4          	movzbl -0x1c(%ebp),%edx
 804adfc:	88 10                	mov    %dl,(%eax)
 804adfe:	8d 50 01             	lea    0x1(%eax),%edx
 804ae01:	8b 45 f4             	mov    -0xc(%ebp),%eax
 804ae04:	89 50 40             	mov    %edx,0x40(%eax)
  if (aux->p >= aux->buf + sizeof aux->buf)
 804ae07:	8b 45 f4             	mov    -0xc(%ebp),%eax
 804ae0a:	8b 40 40             	mov    0x40(%eax),%eax
 804ae0d:	8b 55 f4             	mov    -0xc(%ebp),%edx
 804ae10:	83 c2 40             	add    $0x40,%edx
 804ae13:	39 d0                	cmp    %edx,%eax
 804ae15:	72 0b                	jb     804ae22 <add_char+0x42>
    flush (aux);
 804ae17:	8b 45 f4             	mov    -0xc(%ebp),%eax
 804ae1a:	89 04 24             	mov    %eax,(%esp)
 804ae1d:	e8 11 00 00 00       	call   804ae33 <flush>
  aux->char_cnt++;
 804ae22:	8b 45 f4             	mov    -0xc(%ebp),%eax
 804ae25:	8b 40 44             	mov    0x44(%eax),%eax
 804ae28:	8d 50 01             	lea    0x1(%eax),%edx
 804ae2b:	8b 45 f4             	mov    -0xc(%ebp),%eax
 804ae2e:	89 50 44             	mov    %edx,0x44(%eax)
}
 804ae31:	c9                   	leave  
 804ae32:	c3                   	ret    

0804ae33 <flush>:

/* Flushes the buffer in AUX. */
static void
flush (struct vhprintf_aux *aux)
{
 804ae33:	55                   	push   %ebp
 804ae34:	89 e5                	mov    %esp,%ebp
 804ae36:	83 ec 18             	sub    $0x18,%esp
  if (aux->p > aux->buf)
 804ae39:	8b 45 08             	mov    0x8(%ebp),%eax
 804ae3c:	8b 50 40             	mov    0x40(%eax),%edx
 804ae3f:	8b 45 08             	mov    0x8(%ebp),%eax
 804ae42:	39 c2                	cmp    %eax,%edx
 804ae44:	76 2c                	jbe    804ae72 <flush+0x3f>
    write (aux->handle, aux->buf, aux->p - aux->buf);
 804ae46:	8b 45 08             	mov    0x8(%ebp),%eax
 804ae49:	8b 40 40             	mov    0x40(%eax),%eax
 804ae4c:	89 c2                	mov    %eax,%edx
 804ae4e:	8b 45 08             	mov    0x8(%ebp),%eax
 804ae51:	89 d1                	mov    %edx,%ecx
 804ae53:	29 c1                	sub    %eax,%ecx
 804ae55:	89 c8                	mov    %ecx,%eax
 804ae57:	89 c1                	mov    %eax,%ecx
 804ae59:	8b 55 08             	mov    0x8(%ebp),%edx
 804ae5c:	8b 45 08             	mov    0x8(%ebp),%eax
 804ae5f:	8b 40 48             	mov    0x48(%eax),%eax
 804ae62:	89 4c 24 08          	mov    %ecx,0x8(%esp)
 804ae66:	89 54 24 04          	mov    %edx,0x4(%esp)
 804ae6a:	89 04 24             	mov    %eax,(%esp)
 804ae6d:	e8 4c fd ff ff       	call   804abbe <write>
  aux->p = aux->buf;
 804ae72:	8b 55 08             	mov    0x8(%ebp),%edx
 804ae75:	8b 45 08             	mov    0x8(%ebp),%eax
 804ae78:	89 50 40             	mov    %edx,0x40(%eax)
}
 804ae7b:	c9                   	leave  
 804ae7c:	c3                   	ret    
 804ae7d:	90                   	nop
 804ae7e:	90                   	nop
 804ae7f:	90                   	nop

0804ae80 <debug_backtrace>:
   each of the functions we are nested within.  gdb or addr2line
   may be applied to kernel.o to translate these into file names,
   line numbers, and function names.  */
void
debug_backtrace (void) 
{
 804ae80:	55                   	push   %ebp
 804ae81:	89 e5                	mov    %esp,%ebp
 804ae83:	83 ec 28             	sub    $0x28,%esp
  static bool explained;
  void **frame;
  
  printf ("Call stack:");
 804ae86:	c7 04 24 80 b5 04 08 	movl   $0x804b580,(%esp)
 804ae8d:	e8 04 df ff ff       	call   8048d96 <printf>
  for (frame = __builtin_frame_address (0);
 804ae92:	89 e8                	mov    %ebp,%eax
 804ae94:	89 45 f4             	mov    %eax,-0xc(%ebp)
 804ae97:	eb 20                	jmp    804aeb9 <debug_backtrace+0x39>
       frame != NULL && frame[0] != NULL;
       frame = frame[0]) 
    printf (" %p", frame[1]);
 804ae99:	8b 45 f4             	mov    -0xc(%ebp),%eax
 804ae9c:	83 c0 04             	add    $0x4,%eax
 804ae9f:	8b 00                	mov    (%eax),%eax
 804aea1:	89 44 24 04          	mov    %eax,0x4(%esp)
 804aea5:	c7 04 24 8c b5 04 08 	movl   $0x804b58c,(%esp)
 804aeac:	e8 e5 de ff ff       	call   8048d96 <printf>
  void **frame;
  
  printf ("Call stack:");
  for (frame = __builtin_frame_address (0);
       frame != NULL && frame[0] != NULL;
       frame = frame[0]) 
 804aeb1:	8b 45 f4             	mov    -0xc(%ebp),%eax
 804aeb4:	8b 00                	mov    (%eax),%eax
 804aeb6:	89 45 f4             	mov    %eax,-0xc(%ebp)
{
  static bool explained;
  void **frame;
  
  printf ("Call stack:");
  for (frame = __builtin_frame_address (0);
 804aeb9:	83 7d f4 00          	cmpl   $0x0,-0xc(%ebp)
 804aebd:	74 09                	je     804aec8 <debug_backtrace+0x48>
       frame != NULL && frame[0] != NULL;
 804aebf:	8b 45 f4             	mov    -0xc(%ebp),%eax
 804aec2:	8b 00                	mov    (%eax),%eax
{
  static bool explained;
  void **frame;
  
  printf ("Call stack:");
  for (frame = __builtin_frame_address (0);
 804aec4:	85 c0                	test   %eax,%eax
 804aec6:	75 d1                	jne    804ae99 <debug_backtrace+0x19>
       frame != NULL && frame[0] != NULL;
       frame = frame[0]) 
    printf (" %p", frame[1]);
  printf (".\n");
 804aec8:	c7 04 24 90 b5 04 08 	movl   $0x804b590,(%esp)
 804aecf:	e8 5b fe ff ff       	call   804ad2f <puts>

  if (!explained) 
 804aed4:	0f b6 05 64 cf 04 08 	movzbl 0x804cf64,%eax
 804aedb:	83 f0 01             	xor    $0x1,%eax
 804aede:	84 c0                	test   %al,%al
 804aee0:	74 13                	je     804aef5 <debug_backtrace+0x75>
    {
      explained = true;
 804aee2:	c6 05 64 cf 04 08 01 	movb   $0x1,0x804cf64
      printf ("The `backtrace' program can make call stacks useful.\n"
 804aee9:	c7 04 24 94 b5 04 08 	movl   $0x804b594,(%esp)
 804aef0:	e8 3a fe ff ff       	call   804ad2f <puts>
              "Read \"Backtraces\" in the \"Debugging Tools\" chapter\n"
              "of the Pintos documentation for more information.\n");
    }
}
 804aef5:	c9                   	leave  
 804aef6:	c3                   	ret    
